
Droplet_Module_CH32V003.elf:     file format elf32-littleriscv
Droplet_Module_CH32V003.elf
architecture: riscv:rv32, flags 0x00000112:
EXEC_P, HAS_SYMS, D_PAGED
start address 0x00000000

Program Header:
    LOAD off    0x00001000 vaddr 0x00000000 paddr 0x00000000 align 2**12
         filesz 0x00001684 memsz 0x00001684 flags r-x
    LOAD off    0x00003000 vaddr 0x20000000 paddr 0x00001684 align 2**12
         filesz 0x000000b0 memsz 0x0000015c flags rw-
    LOAD off    0x00003700 vaddr 0x20000700 paddr 0x20000700 align 2**12
         filesz 0x00000000 memsz 0x00000100 flags rw-

Sections:
Idx Name          Size      VMA       LMA       File off  Algn
  0 .init         000000a0  00000000  00000000  00001000  2**2
                  CONTENTS, ALLOC, LOAD, READONLY, CODE
  1 .highcodelalign 00000000  000000a0  000000a0  000030b0  2**0
                  CONTENTS
  2 .highcode     00000000  20000000  20000000  000030b0  2**0
                  CONTENTS
  3 .text         000015e4  000000a0  000000a0  000010a0  2**2
                  CONTENTS, ALLOC, LOAD, READONLY, CODE
  4 .fini         00000000  00001684  00001684  000030b0  2**0
                  CONTENTS, ALLOC, LOAD, CODE
  5 .dalign       00000000  20000000  20000000  000030b0  2**0
                  CONTENTS
  6 .dlalign      00000000  00001684  00001684  000030b0  2**0
                  CONTENTS
  7 .data         000000b0  20000000  00001684  00003000  2**2
                  CONTENTS, ALLOC, LOAD, DATA
  8 .bss          000000ac  200000b0  00001734  000030b0  2**2
                  ALLOC
  9 .stack        00000100  20000700  20000700  00003700  2**0
                  ALLOC
 10 .debug_info   00013ebb  00000000  00000000  000030b0  2**0
                  CONTENTS, READONLY, DEBUGGING
 11 .debug_abbrev 0000392b  00000000  00000000  00016f6b  2**0
                  CONTENTS, READONLY, DEBUGGING
 12 .debug_aranges 00000a70  00000000  00000000  0001a898  2**3
                  CONTENTS, READONLY, DEBUGGING
 13 .debug_ranges 00000ad8  00000000  00000000  0001b308  2**3
                  CONTENTS, READONLY, DEBUGGING
 14 .debug_line   0000e288  00000000  00000000  0001bde0  2**0
                  CONTENTS, READONLY, DEBUGGING
 15 .debug_str    000030ba  00000000  00000000  0002a068  2**0
                  CONTENTS, READONLY, DEBUGGING
 16 .comment      00000033  00000000  00000000  0002d122  2**0
                  CONTENTS, READONLY
 17 .debug_frame  0000186c  00000000  00000000  0002d158  2**2
                  CONTENTS, READONLY, DEBUGGING
 18 .debug_loc    00004e1e  00000000  00000000  0002e9c4  2**0
                  CONTENTS, READONLY, DEBUGGING
SYMBOL TABLE:
00000000 l    d  .init	00000000 .init
000000a0 l    d  .highcodelalign	00000000 .highcodelalign
20000000 l    d  .highcode	00000000 .highcode
000000a0 l    d  .text	00000000 .text
00001684 l    d  .fini	00000000 .fini
20000000 l    d  .dalign	00000000 .dalign
00001684 l    d  .dlalign	00000000 .dlalign
20000000 l    d  .data	00000000 .data
200000b0 l    d  .bss	00000000 .bss
20000700 l    d  .stack	00000000 .stack
00000000 l    d  .debug_info	00000000 .debug_info
00000000 l    d  .debug_abbrev	00000000 .debug_abbrev
00000000 l    d  .debug_aranges	00000000 .debug_aranges
00000000 l    d  .debug_ranges	00000000 .debug_ranges
00000000 l    d  .debug_line	00000000 .debug_line
00000000 l    d  .debug_str	00000000 .debug_str
00000000 l    d  .comment	00000000 .comment
00000000 l    d  .debug_frame	00000000 .debug_frame
00000000 l    d  .debug_loc	00000000 .debug_loc
00000000 l    df *ABS*	00000000 moisture.c
00000000 l    df *ABS*	00000000 valve.c
00000000 l    df *ABS*	00000000 device.c
00000000 l    df *ABS*	00000000 system.c
00000000 l    df *ABS*	00000000 timer.c
200000c0 l     O .bss	00000004 system_ms
00000000 l    df *ABS*	00000000 uart.c
00000000 l    df *ABS*	00000000 packet.c
00000000 l    df *ABS*	00000000 protocol.c
20000144 l     O .bss	00000001 pending_addr
00000000 l    df *ABS*	00000000 ch32v00x_it.c
00000000 l    df *ABS*	00000000 main.c
00000000 l    df *ABS*	00000000 system_ch32v00x.c
00000000 l    df *ABS*	00000000 ch32v00x_adc.c
00000000 l    df *ABS*	00000000 ch32v00x_flash.c
00000000 l    df *ABS*	00000000 ch32v00x_gpio.c
00000000 l    df *ABS*	00000000 ch32v00x_misc.c
00000000 l    df *ABS*	00000000 ch32v00x_rcc.c
2000001c l     O .data	00000014 ADCPrescTable
20000030 l     O .data	00000010 APBAHBPrescTable
00000000 l    df *ABS*	00000000 ch32v00x_tim.c
00000000 l    df *ABS*	00000000 ch32v00x_usart.c
00000000 l    df *ABS*	00000000 debug.c
20000040 l     O .data	00000004 curbrk.4091
00000000 l    df *ABS*	00000000 rand.c
00000000 l    df *ABS*	00000000 malloc.c
00000000 l    df *ABS*	00000000 nano-mallocr.c
00000000 l    df *ABS*	00000000 sbrkr.c
00000000 l    df *ABS*	00000000 mlock.c
00000000 l    df *ABS*	00000000 impure.c
20000044 l     O .data	00000060 impure_data
00000000 l    df *ABS*	00000000 reent.c
000005be g     F .text	00000032 RS485_Dir_Init
2000013c g     O .bss	00000001 last_cmd_seen
00000698 g     F .text	00000028 uart_rx_busy
00001052 g     F .text	0000001a FLASH_Unlock
200000c4 g     O .bss	00000001 expected_length
00000292 g     F .text	0000001c DelayMs
20000150 g     O .bss	00000001 uid_reply_pending
200008a8 g       .data	00000000 __global_pointer$
00000e4a  w      .text	00000000 TIM1_CC_IRQHandler
00000c60 g     F .text	00000010 HardFault_Handler
00001680 g     F .text	00000002 __malloc_unlock
000006c0 g     F .text	0000002a uart_line_idle
000002ae g     F .text	00000016 SysTick_Handler
00000f64 g     F .text	0000000a ADC_StartCalibration
000011b2 g     F .text	00000062 NVIC_Init
00000e4a  w      .text	00000000 PVD_IRQHandler
00000c5e g     F .text	00000002 NMI_Handler
000010ea g     F .text	00000034 FLASH_ProgramHalfWord
20000135 g     O .bss	00000001 awaiting_address_commit
20000145 g     O .bss	00000001 pending_reboot
000014ae g     F .text	0000000a USART_GetFlagStatus
20000158 g     O .bss	00000004 errno
200000b0 g       .bss	00000000 _sbss
00000100 g       *ABS*	00000000 __stack_size
00001048 g     F .text	0000000a ADC_GetFlagStatus
000010b2 g     F .text	00000038 FLASH_ErasePage
20000004 g     O .data	00000004 heartbeat_timeout_ms
200000e8 g     O .bss	00000002 rx_crc_errors
000000aa g     F .text	0000000a .hidden __riscv_restore_2
000001de g     F .text	00000016 set_valve_state
20000136 g     O .bss	00000001 awaiting_reset_commit
00000132 g     F .text	0000007e moisture_sensor_init
00000f42 g     F .text	00000010 ADC_Cmd
00000600 g     F .text	00000010 RS485_SetRX
000001f4 g     F .text	00000006 valve_is_open
00001334 g     F .text	00000018 TIM_Cmd
20000018 g     O .data	00000004 SystemCoreClock
000014a6 g     F .text	00000008 USART_ReceiveData
00001574 g     F .text	0000000e malloc
000000bc g     F .text	0000002c .hidden __udivsi3
000007ec g     F .text	00000392 handle_packet
000000a0 g       .init	00000000 _einit
0000137a g     F .text	0000000c TIM_ClearITPendingBit
000012c8 g     F .text	0000001e RCC_APB2PeriphClockCmd
200000b8 g     O .bss	00000001 valve_open
0000111e g     F .text	0000007c GPIO_Init
20000154 g     O .bss	00000004 NVIC_Priority_Group
000007ca g     F .text	00000022 is_uid_match
00000e4a  w      .text	00000000 SPI1_IRQHandler
00000f52 g     F .text	0000000a ADC_ResetCalibration
00001452 g     F .text	00000016 USART_Cmd
00001656 g     F .text	00000028 _sbrk_r
000000a0 g     F .text	0000000a .hidden __riscv_save_1
00000224 g     F .text	00000020 load_device_address
000000aa g     F .text	0000000a .hidden __riscv_restore_0
00000e4a  w      .text	00000000 AWU_IRQHandler
00000e4a  w      .text	00000000 EXTI7_0_IRQHandler
20000134 g     O .bss	00000001 response_pending
20000700 g       .stack	00000000 _heap_end
00000e4a  w      .text	00000000 DMA1_Channel4_IRQHandler
00000f86 g     F .text	000000ba ADC_RegularChannelConfig
00000e4a  w      .text	00000000 ADC1_IRQHandler
000014f4 g     F .text	00000026 _sbrk
00001040 g     F .text	00000008 ADC_GetConversionValue
0000106c g     F .text	0000000e FLASH_Lock
2000015c g       .bss	00000000 _ebss
000014b8 g     F .text	0000003c USART_GetITStatus
00000e4a  w      .text	00000000 DMA1_Channel7_IRQHandler
00000f6e g     F .text	00000018 ADC_SoftwareStartConvCmd
00000f5c g     F .text	00000008 ADC_GetResetCalibrationStatus
200000c8 g     O .bss	00000020 rx_buffer
0000119a g     F .text	00000004 GPIO_SetBits
00000244 g     F .text	00000030 init_device
000011a2 g     F .text	0000000a GPIO_WriteBit
0000028c g     F .text	00000006 now_ms
000000e8 g     F .text	00000008 .hidden __umodsi3
20000000 g     O .data	00000004 idle_guard_ms
00000e4a  w      .text	00000000 I2C1_EV_IRQHandler
00001362 g     F .text	00000018 TIM_GetITStatus
00001226 g     F .text	000000a2 RCC_GetClocksFreq
00000e4a  w      .text	00000000 DMA1_Channel6_IRQHandler
00001386 g     F .text	000000cc USART_Init
00000e4a  w      .text	00000000 RCC_IRQHandler
00000e4a  w      .text	00000000 TIM1_TRG_COM_IRQHandler
00000e4a  w      .text	00000000 DMA1_Channel1_IRQHandler
0000072e g     F .text	0000009c send_packet
00000000 g       .init	00000000 _start
20000008 g     O .data	00000010 AHBPrescTable
00001092 g     F .text	00000020 FLASH_WaitForLastOperation
0000134c g     F .text	00000012 TIM_ITConfig
00001468 g     F .text	00000036 USART_ITConfig
20000000 g       .highcode	00000000 _highcode_vma_start
000006ea g     F .text	00000044 crc16
20000114 g     O .bss	00000020 response_packet
0000119e g     F .text	00000004 GPIO_ResetBits
20000000 g       .dalign	00000000 _data_vma
00000302 g     F .text	000000c2 USARTx_CFG
20000148 g     O .bss	00000004 reset_commit_deadline
0000167e g     F .text	00000002 __malloc_lock
00001214 g     F .text	00000012 RCC_AdjustHSICalibrationValue
00000c70 g     F .text	0000003a main
0000151a g     F .text	0000005a srand
00001582 g     F .text	000000d4 _malloc_r
2000014c g     O .bss	00000004 uid_reply_at
00000e4a  w      .text	00000000 DMA1_Channel5_IRQHandler
0000135e g     F .text	00000004 TIM_SetCounter
000000b4 g     F .text	00000058 .hidden __divsi3
000000a0 g       .highcodelalign	00000000 _highcode_lma
00000caa g     F .text	00000134 SystemInit
00000000 g       .init	00000000 _sinit
00000e4a  w      .text	00000000 DMA1_Channel3_IRQHandler
200000a8 g     O .data	00000004 _impure_ptr
000003c4 g     F .text	00000064 TIM1_UP_IRQHandler
00000e4a  w      .text	00000000 WWDG_IRQHandler
200000f4 g     O .bss	00000020 received_packet
00000e4a  w      .text	00000000 TIM2_IRQHandler
20000800 g       .stack	00000000 _eusrstack
000000a0 g     F .text	0000000a .hidden __riscv_save_2
00000e4a  w      .text	00000000 SW_Handler
00000e4a  w      .text	00000000 TIM1_BRK_IRQHandler
00000ef4 g     F .text	0000004e ADC_Init
0000149e g     F .text	00000008 USART_SendData
200000ec g     O .bss	00000004 uart_last_rx_ms
200000b0 g       .data	00000000 _edata
2000015c g       .bss	00000000 _end
00000b7e g     F .text	000000e0 protocol_poll
20000000 g       .highcode	00000000 _highcode_vma_end
000012e6 g     F .text	0000004e TIM_TimeBaseInit
000001fa g     F .text	0000002a save_device_address
00001684 g       .dlalign	00000000 _data_lma
00000610 g     F .text	0000007e UART_SetInterByteTimeoutMs
20000140 g     O .bss	00000004 last_heartbeat_ms
000002c4 g     F .text	0000003e DelayInit
00000dde g     F .text	0000006c SystemCoreClockUpdate
200000ea g     O .bss	00000001 rx_index
200000b9 g     O .bss	00000001 DEVICE_ADDR
0000010c g     F .text	00000024 .hidden __modsi3
200000f0 g     O .bss	00000001 packet_ready
00000e4a  w      .text	00000000 DMA1_Channel2_IRQHandler
20000138 g     O .bss	00000004 commit_deadline
00000e4c  w      .text	00000000 handle_reset
00000e4a  w      .text	00000000 FLASH_IRQHandler
000000a0 g     F .text	0000000a .hidden __riscv_save_0
000001b0 g     F .text	0000002e get_moisture
00000428 g     F .text	00000196 USART1_IRQHandler
200000b4 g     O .bss	00000004 __malloc_sbrk_start
200000bc g     O .bss	00000004 device_uid
00000e4a  w      .text	00000000 I2C1_ER_IRQHandler
000011ac g     F .text	00000006 NVIC_PriorityGroupConfig
000005f0 g     F .text	00000010 RS485_SetTX
200000b0 g     O .bss	00000004 __malloc_free_list
00000274 g     F .text	00000018 system_soft_reset
000000aa g     F .text	0000000a .hidden __riscv_restore_1
0000107a g     F .text	00000018 FLASH_GetBank1Status
0000068e g     F .text	0000000a UART_SetAutoInterByteTimeout



Disassembly of section .init:

00000000 <_sinit>:
   0:	64d0006f          	j	e4c <handle_reset>
   4:	0000                	unimp
   6:	0000                	unimp
   8:	0c5e                	slli	s8,s8,0x17
   a:	0000                	unimp
   c:	0c60                	addi	s0,sp,540
	...
  2e:	0000                	unimp
  30:	02ae                	slli	t0,t0,0xb
  32:	0000                	unimp
  34:	0000                	unimp
  36:	0000                	unimp
  38:	0e4a                	slli	t3,t3,0x12
  3a:	0000                	unimp
  3c:	0000                	unimp
  3e:	0000                	unimp
  40:	0e4a                	slli	t3,t3,0x12
  42:	0000                	unimp
  44:	0e4a                	slli	t3,t3,0x12
  46:	0000                	unimp
  48:	0e4a                	slli	t3,t3,0x12
  4a:	0000                	unimp
  4c:	0e4a                	slli	t3,t3,0x12
  4e:	0000                	unimp
  50:	0e4a                	slli	t3,t3,0x12
  52:	0000                	unimp
  54:	0e4a                	slli	t3,t3,0x12
  56:	0000                	unimp
  58:	0e4a                	slli	t3,t3,0x12
  5a:	0000                	unimp
  5c:	0e4a                	slli	t3,t3,0x12
  5e:	0000                	unimp
  60:	0e4a                	slli	t3,t3,0x12
  62:	0000                	unimp
  64:	0e4a                	slli	t3,t3,0x12
  66:	0000                	unimp
  68:	0e4a                	slli	t3,t3,0x12
  6a:	0000                	unimp
  6c:	0e4a                	slli	t3,t3,0x12
  6e:	0000                	unimp
  70:	0e4a                	slli	t3,t3,0x12
  72:	0000                	unimp
  74:	0e4a                	slli	t3,t3,0x12
  76:	0000                	unimp
  78:	0e4a                	slli	t3,t3,0x12
  7a:	0000                	unimp
  7c:	0e4a                	slli	t3,t3,0x12
  7e:	0000                	unimp
  80:	0428                	addi	a0,sp,520
  82:	0000                	unimp
  84:	0e4a                	slli	t3,t3,0x12
  86:	0000                	unimp
  88:	0e4a                	slli	t3,t3,0x12
  8a:	0000                	unimp
  8c:	03c4                	addi	s1,sp,452
  8e:	0000                	unimp
  90:	0e4a                	slli	t3,t3,0x12
  92:	0000                	unimp
  94:	0e4a                	slli	t3,t3,0x12
  96:	0000                	unimp
  98:	0e4a                	slli	t3,t3,0x12
  9a:	0000                	unimp
  9c:	0000                	unimp
	...

Disassembly of section .text:

000000a0 <__riscv_save_0>:
      a0:	1151                	addi	sp,sp,-12
      a2:	c026                	sw	s1,0(sp)
      a4:	c222                	sw	s0,4(sp)
      a6:	c406                	sw	ra,8(sp)
      a8:	8282                	jr	t0

000000aa <__riscv_restore_0>:
      aa:	4482                	lw	s1,0(sp)
      ac:	4412                	lw	s0,4(sp)
      ae:	40a2                	lw	ra,8(sp)
      b0:	0131                	addi	sp,sp,12
      b2:	8082                	ret

000000b4 <__divsi3>:
      b4:	02054e63          	bltz	a0,f0 <__umodsi3+0x8>
      b8:	0405c363          	bltz	a1,fe <__umodsi3+0x16>

000000bc <__udivsi3>:
      bc:	862e                	mv	a2,a1
      be:	85aa                	mv	a1,a0
      c0:	557d                	li	a0,-1
      c2:	c215                	beqz	a2,e6 <__udivsi3+0x2a>
      c4:	4685                	li	a3,1
      c6:	00b67863          	bgeu	a2,a1,d6 <__udivsi3+0x1a>
      ca:	00c05663          	blez	a2,d6 <__udivsi3+0x1a>
      ce:	0606                	slli	a2,a2,0x1
      d0:	0686                	slli	a3,a3,0x1
      d2:	feb66ce3          	bltu	a2,a1,ca <__udivsi3+0xe>
      d6:	4501                	li	a0,0
      d8:	00c5e463          	bltu	a1,a2,e0 <__udivsi3+0x24>
      dc:	8d91                	sub	a1,a1,a2
      de:	8d55                	or	a0,a0,a3
      e0:	8285                	srli	a3,a3,0x1
      e2:	8205                	srli	a2,a2,0x1
      e4:	faf5                	bnez	a3,d8 <__udivsi3+0x1c>
      e6:	8082                	ret

000000e8 <__umodsi3>:
      e8:	8286                	mv	t0,ra
      ea:	3fc9                	jal	bc <__udivsi3>
      ec:	852e                	mv	a0,a1
      ee:	8282                	jr	t0
      f0:	40a00533          	neg	a0,a0
      f4:	0005d763          	bgez	a1,102 <__stack_size+0x2>
      f8:	40b005b3          	neg	a1,a1
      fc:	b7c1                	j	bc <__udivsi3>
      fe:	40b005b3          	neg	a1,a1
     102:	8286                	mv	t0,ra
     104:	3f65                	jal	bc <__udivsi3>
     106:	40a00533          	neg	a0,a0
     10a:	8282                	jr	t0

0000010c <__modsi3>:
     10c:	8286                	mv	t0,ra
     10e:	0005c763          	bltz	a1,11c <__modsi3+0x10>
     112:	00054963          	bltz	a0,124 <__modsi3+0x18>
     116:	375d                	jal	bc <__udivsi3>
     118:	852e                	mv	a0,a1
     11a:	8282                	jr	t0
     11c:	40b005b3          	neg	a1,a1
     120:	fe055be3          	bgez	a0,116 <__modsi3+0xa>
     124:	40a00533          	neg	a0,a0
     128:	3f51                	jal	bc <__udivsi3>
     12a:	40b00533          	neg	a0,a1
     12e:	8282                	jr	t0
	...

00000132 <moisture_sensor_init>:
     132:	f6fff2ef          	jal	t0,a0 <__riscv_save_0>
     136:	fdc10113          	addi	sp,sp,-36
     13a:	4585                	li	a1,1
     13c:	21000513          	li	a0,528
     140:	188010ef          	jal	ra,12c8 <RCC_APB2PeriphClockCmd>
     144:	47c1                	li	a5,16
     146:	858a                	mv	a1,sp
     148:	40011537          	lui	a0,0x40011
     14c:	807c                	sh	a5,0(sp)
     14e:	c402                	sw	zero,8(sp)
     150:	7cf000ef          	jal	ra,111e <GPIO_Init>
     154:	40012437          	lui	s0,0x40012
     158:	000e07b7          	lui	a5,0xe0
     15c:	cc3e                	sw	a5,24(sp)
     15e:	006c                	addi	a1,sp,12
     160:	4785                	li	a5,1
     162:	40040513          	addi	a0,s0,1024 # 40012400 <__global_pointer$+0x20011b58>
     166:	02f10023          	sb	a5,32(sp)
     16a:	c602                	sw	zero,12(sp)
     16c:	c802                	sw	zero,16(sp)
     16e:	ca02                	sw	zero,20(sp)
     170:	ce02                	sw	zero,28(sp)
     172:	583000ef          	jal	ra,ef4 <ADC_Init>
     176:	469d                	li	a3,7
     178:	4605                	li	a2,1
     17a:	4589                	li	a1,2
     17c:	40040513          	addi	a0,s0,1024
     180:	607000ef          	jal	ra,f86 <ADC_RegularChannelConfig>
     184:	4585                	li	a1,1
     186:	40040513          	addi	a0,s0,1024
     18a:	5b9000ef          	jal	ra,f42 <ADC_Cmd>
     18e:	40040513          	addi	a0,s0,1024
     192:	5c1000ef          	jal	ra,f52 <ADC_ResetCalibration>
     196:	40040493          	addi	s1,s0,1024
     19a:	8526                	mv	a0,s1
     19c:	5c1000ef          	jal	ra,f5c <ADC_GetResetCalibrationStatus>
     1a0:	fd6d                	bnez	a0,19a <moisture_sensor_init+0x68>
     1a2:	40040513          	addi	a0,s0,1024
     1a6:	5bf000ef          	jal	ra,f64 <ADC_StartCalibration>
     1aa:	02410113          	addi	sp,sp,36
     1ae:	bdf5                	j	aa <__riscv_restore_0>

000001b0 <get_moisture>:
     1b0:	ef1ff2ef          	jal	t0,a0 <__riscv_save_0>
     1b4:	40012537          	lui	a0,0x40012
     1b8:	4585                	li	a1,1
     1ba:	40050513          	addi	a0,a0,1024 # 40012400 <__global_pointer$+0x20011b58>
     1be:	40012437          	lui	s0,0x40012
     1c2:	5ad000ef          	jal	ra,f6e <ADC_SoftwareStartConvCmd>
     1c6:	40040493          	addi	s1,s0,1024 # 40012400 <__global_pointer$+0x20011b58>
     1ca:	4589                	li	a1,2
     1cc:	8526                	mv	a0,s1
     1ce:	67b000ef          	jal	ra,1048 <ADC_GetFlagStatus>
     1d2:	dd65                	beqz	a0,1ca <get_moisture+0x1a>
     1d4:	40040513          	addi	a0,s0,1024
     1d8:	669000ef          	jal	ra,1040 <ADC_GetConversionValue>
     1dc:	b5f9                	j	aa <__riscv_restore_0>

000001de <set_valve_state>:
     1de:	ec3ff2ef          	jal	t0,a0 <__riscv_save_0>
     1e2:	862a                	mv	a2,a0
     1e4:	80a18823          	sb	a0,-2032(gp) # 200000b8 <valve_open>
     1e8:	4591                	li	a1,4
     1ea:	40011537          	lui	a0,0x40011
     1ee:	7b5000ef          	jal	ra,11a2 <GPIO_WriteBit>
     1f2:	bd65                	j	aa <__riscv_restore_0>

000001f4 <valve_is_open>:
     1f4:	8101c503          	lbu	a0,-2032(gp) # 200000b8 <valve_open>
     1f8:	8082                	ret

000001fa <save_device_address>:
     1fa:	ea7ff2ef          	jal	t0,a0 <__riscv_save_0>
     1fe:	1171                	addi	sp,sp,-4
     200:	08004437          	lui	s0,0x8004
     204:	c02a                	sw	a0,0(sp)
     206:	64d000ef          	jal	ra,1052 <FLASH_Unlock>
     20a:	c0040513          	addi	a0,s0,-1024 # 8003c00 <_data_lma+0x800257c>
     20e:	6a5000ef          	jal	ra,10b2 <FLASH_ErasePage>
     212:	4582                	lw	a1,0(sp)
     214:	c0040513          	addi	a0,s0,-1024
     218:	6d3000ef          	jal	ra,10ea <FLASH_ProgramHalfWord>
     21c:	651000ef          	jal	ra,106c <FLASH_Lock>
     220:	0111                	addi	sp,sp,4
     222:	b561                	j	aa <__riscv_restore_0>

00000224 <load_device_address>:
     224:	080047b7          	lui	a5,0x8004
     228:	c007c503          	lbu	a0,-1024(a5) # 8003c00 <_data_lma+0x800257c>
     22c:	0fd00713          	li	a4,253
     230:	0ff57513          	andi	a0,a0,255
     234:	fff50793          	addi	a5,a0,-1 # 40010fff <__global_pointer$+0x20010757>
     238:	0ff7f793          	andi	a5,a5,255
     23c:	00f77363          	bgeu	a4,a5,242 <load_device_address+0x1e>
     240:	4501                	li	a0,0
     242:	8082                	ret

00000244 <init_device>:
     244:	e5dff2ef          	jal	t0,a0 <__riscv_save_0>
     248:	1ffff7b7          	lui	a5,0x1ffff
     24c:	7e87a683          	lw	a3,2024(a5) # 1ffff7e8 <_data_lma+0x1fffe164>
     250:	7ec7a703          	lw	a4,2028(a5)
     254:	81418793          	addi	a5,gp,-2028 # 200000bc <device_uid>
     258:	0186d613          	srli	a2,a3,0x18
     25c:	82c1                	srli	a3,a3,0x10
     25e:	b394                	sb	a3,1(a5)
     260:	01875693          	srli	a3,a4,0x18
     264:	8341                	srli	a4,a4,0x10
     266:	a390                	sb	a2,0(a5)
     268:	a3b4                	sb	a3,2(a5)
     26a:	b3b8                	sb	a4,3(a5)
     26c:	3f65                	jal	224 <load_device_address>
     26e:	80a188a3          	sb	a0,-2031(gp) # 200000b9 <DEVICE_ADDR>
     272:	bd25                	j	aa <__riscv_restore_0>

00000274 <system_soft_reset>:
     274:	e2dff2ef          	jal	t0,a0 <__riscv_save_0>
     278:	4551                	li	a0,20
     27a:	2821                	jal	292 <DelayMs>
     27c:	beef07b7          	lui	a5,0xbeef0
     280:	e000e737          	lui	a4,0xe000e
     284:	08078793          	addi	a5,a5,128 # beef0080 <__global_pointer$+0x9eeef7d8>
     288:	c73c                	sw	a5,72(a4)
     28a:	b505                	j	aa <__riscv_restore_0>

0000028c <now_ms>:
     28c:	8181a503          	lw	a0,-2024(gp) # 200000c0 <system_ms>
     290:	8082                	ret

00000292 <DelayMs>:
     292:	81818713          	addi	a4,gp,-2024 # 200000c0 <system_ms>
     296:	4318                	lw	a4,0(a4)
     298:	81818793          	addi	a5,gp,-2024 # 200000c0 <system_ms>
     29c:	953a                	add	a0,a0,a4
     29e:	4398                	lw	a4,0(a5)
     2a0:	40e50733          	sub	a4,a0,a4
     2a4:	00e04363          	bgtz	a4,2aa <DelayMs+0x18>
     2a8:	8082                	ret
     2aa:	0001                	nop
     2ac:	bfcd                	j	29e <DelayMs+0xc>

000002ae <SysTick_Handler>:
     2ae:	e000f7b7          	lui	a5,0xe000f
     2b2:	0007a223          	sw	zero,4(a5) # e000f004 <__global_pointer$+0xc000e75c>
     2b6:	81818793          	addi	a5,gp,-2024 # 200000c0 <system_ms>
     2ba:	4398                	lw	a4,0(a5)
     2bc:	0705                	addi	a4,a4,1
     2be:	c398                	sw	a4,0(a5)
     2c0:	30200073          	mret

000002c4 <DelayInit>:
     2c4:	dddff2ef          	jal	t0,a0 <__riscv_save_0>
     2c8:	317000ef          	jal	ra,dde <SystemCoreClockUpdate>
     2cc:	200007b7          	lui	a5,0x20000
     2d0:	0187a503          	lw	a0,24(a5) # 20000018 <SystemCoreClock>
     2d4:	3e800593          	li	a1,1000
     2d8:	33d5                	jal	bc <__udivsi3>
     2da:	e000f7b7          	lui	a5,0xe000f
     2de:	157d                	addi	a0,a0,-1
     2e0:	cb88                	sw	a0,16(a5)
     2e2:	0007a423          	sw	zero,8(a5) # e000f008 <__global_pointer$+0xc000e760>
     2e6:	473d                	li	a4,15
     2e8:	c398                	sw	a4,0(a5)
     2ea:	0007a223          	sw	zero,4(a5)
     2ee:	08800793          	li	a5,136
     2f2:	3007a073          	csrs	mstatus,a5
     2f6:	e000e7b7          	lui	a5,0xe000e
     2fa:	6705                	lui	a4,0x1
     2fc:	10e7a023          	sw	a4,256(a5) # e000e100 <__global_pointer$+0xc000d858>
     300:	b36d                	j	aa <__riscv_restore_0>

00000302 <USARTx_CFG>:
     302:	d9fff2ef          	jal	t0,a0 <__riscv_save_0>
     306:	6511                	lui	a0,0x4
     308:	fdc10113          	addi	sp,sp,-36
     30c:	4585                	li	a1,1
     30e:	02050513          	addi	a0,a0,32 # 4020 <_data_lma+0x299c>
     312:	c402                	sw	zero,8(sp)
     314:	c602                	sw	zero,12(sp)
     316:	c802                	sw	zero,16(sp)
     318:	ca02                	sw	zero,20(sp)
     31a:	cc02                	sw	zero,24(sp)
     31c:	ce02                	sw	zero,28(sp)
     31e:	d002                	sw	zero,32(sp)
     320:	7a9000ef          	jal	ra,12c8 <RCC_APB2PeriphClockCmd>
     324:	40010737          	lui	a4,0x40010
     328:	435c                	lw	a5,4(a4)
     32a:	010006b7          	lui	a3,0x1000
     32e:	40011437          	lui	s0,0x40011
     332:	8fd5                	or	a5,a5,a3
     334:	c35c                	sw	a5,4(a4)
     336:	478d                	li	a5,3
     338:	02000493          	li	s1,32
     33c:	c63e                	sw	a5,12(sp)
     33e:	002c                	addi	a1,sp,8
     340:	47e1                	li	a5,24
     342:	40040513          	addi	a0,s0,1024 # 40011400 <__global_pointer$+0x20010b58>
     346:	8464                	sh	s1,8(sp)
     348:	c83e                	sw	a5,16(sp)
     34a:	5d5000ef          	jal	ra,111e <GPIO_Init>
     34e:	04000793          	li	a5,64
     352:	847c                	sh	a5,8(sp)
     354:	002c                	addi	a1,sp,8
     356:	4791                	li	a5,4
     358:	40040513          	addi	a0,s0,1024
     35c:	c83e                	sw	a5,16(sp)
     35e:	5c1000ef          	jal	ra,111e <GPIO_Init>
     362:	6795                	lui	a5,0x5
     364:	40014437          	lui	s0,0x40014
     368:	b0078793          	addi	a5,a5,-1280 # 4b00 <_data_lma+0x347c>
     36c:	084c                	addi	a1,sp,20
     36e:	ca3e                	sw	a5,20(sp)
     370:	80040513          	addi	a0,s0,-2048 # 40013800 <__global_pointer$+0x20012f58>
     374:	000c07b7          	lui	a5,0xc0
     378:	ce3e                	sw	a5,28(sp)
     37a:	cc02                	sw	zero,24(sp)
     37c:	02011023          	sh	zero,32(sp)
     380:	006010ef          	jal	ra,1386 <USART_Init>
     384:	850a                	mv	a0,sp
     386:	8064                	sh	s1,0(sp)
     388:	4485                	li	s1,1
     38a:	c226                	sw	s1,4(sp)
     38c:	00010123          	sb	zero,2(sp)
     390:	623000ef          	jal	ra,11b2 <NVIC_Init>
     394:	12300793          	li	a5,291
     398:	850a                	mv	a0,sp
     39a:	807c                	sh	a5,0(sp)
     39c:	c226                	sw	s1,4(sp)
     39e:	00010123          	sb	zero,2(sp)
     3a2:	611000ef          	jal	ra,11b2 <NVIC_Init>
     3a6:	4605                	li	a2,1
     3a8:	80040513          	addi	a0,s0,-2048
     3ac:	52500593          	li	a1,1317
     3b0:	0b8010ef          	jal	ra,1468 <USART_ITConfig>
     3b4:	4585                	li	a1,1
     3b6:	80040513          	addi	a0,s0,-2048
     3ba:	098010ef          	jal	ra,1452 <USART_Cmd>
     3be:	02410113          	addi	sp,sp,36
     3c2:	b1e5                	j	aa <__riscv_restore_0>

000003c4 <TIM1_UP_IRQHandler>:
     3c4:	fd410113          	addi	sp,sp,-44
     3c8:	cc22                	sw	s0,24(sp)
     3ca:	40013437          	lui	s0,0x40013
     3ce:	ca2a                	sw	a0,20(sp)
     3d0:	c82e                	sw	a1,16(sp)
     3d2:	c0040513          	addi	a0,s0,-1024 # 40012c00 <__global_pointer$+0x20012358>
     3d6:	4585                	li	a1,1
     3d8:	d406                	sw	ra,40(sp)
     3da:	d216                	sw	t0,36(sp)
     3dc:	d01a                	sw	t1,32(sp)
     3de:	ce1e                	sw	t2,28(sp)
     3e0:	c632                	sw	a2,12(sp)
     3e2:	c436                	sw	a3,8(sp)
     3e4:	c23a                	sw	a4,4(sp)
     3e6:	c03e                	sw	a5,0(sp)
     3e8:	77b000ef          	jal	ra,1362 <TIM_GetITStatus>
     3ec:	cd19                	beqz	a0,40a <TIM1_UP_IRQHandler+0x46>
     3ee:	4585                	li	a1,1
     3f0:	c0040513          	addi	a0,s0,-1024
     3f4:	787000ef          	jal	ra,137a <TIM_ClearITPendingBit>
     3f8:	84018123          	sb	zero,-1982(gp) # 200000ea <rx_index>
     3fc:	4581                	li	a1,0
     3fe:	c0040513          	addi	a0,s0,-1024
     402:	80018e23          	sb	zero,-2020(gp) # 200000c4 <expected_length>
     406:	72f000ef          	jal	ra,1334 <TIM_Cmd>
     40a:	4462                	lw	s0,24(sp)
     40c:	50a2                	lw	ra,40(sp)
     40e:	5292                	lw	t0,36(sp)
     410:	5302                	lw	t1,32(sp)
     412:	43f2                	lw	t2,28(sp)
     414:	4552                	lw	a0,20(sp)
     416:	45c2                	lw	a1,16(sp)
     418:	4632                	lw	a2,12(sp)
     41a:	46a2                	lw	a3,8(sp)
     41c:	4712                	lw	a4,4(sp)
     41e:	4782                	lw	a5,0(sp)
     420:	02c10113          	addi	sp,sp,44
     424:	30200073          	mret

00000428 <USART1_IRQHandler>:
     428:	7179                	addi	sp,sp,-48
     42a:	ce22                	sw	s0,28(sp)
     42c:	40014437          	lui	s0,0x40014
     430:	ca2a                	sw	a0,20(sp)
     432:	c82e                	sw	a1,16(sp)
     434:	80040513          	addi	a0,s0,-2048 # 40013800 <__global_pointer$+0x20012f58>
     438:	52500593          	li	a1,1317
     43c:	d606                	sw	ra,44(sp)
     43e:	d416                	sw	t0,40(sp)
     440:	d21a                	sw	t1,36(sp)
     442:	d01e                	sw	t2,32(sp)
     444:	cc26                	sw	s1,24(sp)
     446:	c632                	sw	a2,12(sp)
     448:	c436                	sw	a3,8(sp)
     44a:	c23a                	sw	a4,4(sp)
     44c:	c03e                	sw	a5,0(sp)
     44e:	06a010ef          	jal	ra,14b8 <USART_GetITStatus>
     452:	cd41                	beqz	a0,4ea <USART1_IRQHandler+0xc2>
     454:	3d25                	jal	28c <now_ms>
     456:	84a1a223          	sw	a0,-1980(gp) # 200000ec <uart_last_rx_ms>
     45a:	80040513          	addi	a0,s0,-2048
     45e:	048010ef          	jal	ra,14a6 <USART_ReceiveData>
     462:	84218713          	addi	a4,gp,-1982 # 200000ea <rx_index>
     466:	2318                	lbu	a4,0(a4)
     468:	84aa                	mv	s1,a0
     46a:	4581                	li	a1,0
     46c:	0ff77713          	andi	a4,a4,255
     470:	ef41                	bnez	a4,508 <USART1_IRQHandler+0xe0>
     472:	40013437          	lui	s0,0x40013
     476:	c0040513          	addi	a0,s0,-1024 # 40012c00 <__global_pointer$+0x20012358>
     47a:	6e5000ef          	jal	ra,135e <TIM_SetCounter>
     47e:	4585                	li	a1,1
     480:	c0040513          	addi	a0,s0,-1024
     484:	6b1000ef          	jal	ra,1334 <TIM_Cmd>
     488:	84218793          	addi	a5,gp,-1982 # 200000ea <rx_index>
     48c:	2398                	lbu	a4,0(a5)
     48e:	46fd                	li	a3,31
     490:	81c18413          	addi	s0,gp,-2020 # 200000c4 <expected_length>
     494:	04e6e063          	bltu	a3,a4,4d4 <USART1_IRQHandler+0xac>
     498:	2398                	lbu	a4,0(a5)
     49a:	82018613          	addi	a2,gp,-2016 # 200000c8 <rx_buffer>
     49e:	0ff77713          	andi	a4,a4,255
     4a2:	00170693          	addi	a3,a4,1 # 40010001 <__global_pointer$+0x2000f759>
     4a6:	0ff6f693          	andi	a3,a3,255
     4aa:	a394                	sb	a3,0(a5)
     4ac:	9732                	add	a4,a4,a2
     4ae:	0ff4f493          	andi	s1,s1,255
     4b2:	a304                	sb	s1,0(a4)
     4b4:	2398                	lbu	a4,0(a5)
     4b6:	458d                	li	a1,3
     4b8:	82018693          	addi	a3,gp,-2016 # 200000c8 <rx_buffer>
     4bc:	04e59d63          	bne	a1,a4,516 <USART1_IRQHandler+0xee>
     4c0:	2238                	lbu	a4,2(a2)
     4c2:	02000613          	li	a2,32
     4c6:	0715                	addi	a4,a4,5
     4c8:	0ff77713          	andi	a4,a4,255
     4cc:	a018                	sb	a4,0(s0)
     4ce:	2018                	lbu	a4,0(s0)
     4d0:	04e67363          	bgeu	a2,a4,516 <USART1_IRQHandler+0xee>
     4d4:	40013537          	lui	a0,0x40013
     4d8:	00078023          	sb	zero,0(a5) # c0000 <_data_lma+0xbe97c>
     4dc:	4581                	li	a1,0
     4de:	c0050513          	addi	a0,a0,-1024 # 40012c00 <__global_pointer$+0x20012358>
     4e2:	00040023          	sb	zero,0(s0)
     4e6:	64f000ef          	jal	ra,1334 <TIM_Cmd>
     4ea:	4472                	lw	s0,28(sp)
     4ec:	50b2                	lw	ra,44(sp)
     4ee:	52a2                	lw	t0,40(sp)
     4f0:	5312                	lw	t1,36(sp)
     4f2:	5382                	lw	t2,32(sp)
     4f4:	44e2                	lw	s1,24(sp)
     4f6:	4552                	lw	a0,20(sp)
     4f8:	45c2                	lw	a1,16(sp)
     4fa:	4632                	lw	a2,12(sp)
     4fc:	46a2                	lw	a3,8(sp)
     4fe:	4712                	lw	a4,4(sp)
     500:	4782                	lw	a5,0(sp)
     502:	6145                	addi	sp,sp,48
     504:	30200073          	mret
     508:	40013537          	lui	a0,0x40013
     50c:	c0050513          	addi	a0,a0,-1024 # 40012c00 <__global_pointer$+0x20012358>
     510:	64f000ef          	jal	ra,135e <TIM_SetCounter>
     514:	bf95                	j	488 <USART1_IRQHandler+0x60>
     516:	2018                	lbu	a4,0(s0)
     518:	0ff77713          	andi	a4,a4,255
     51c:	d779                	beqz	a4,4ea <USART1_IRQHandler+0xc2>
     51e:	2390                	lbu	a2,0(a5)
     520:	2018                	lbu	a4,0(s0)
     522:	0ff77713          	andi	a4,a4,255
     526:	fcc712e3          	bne	a4,a2,4ea <USART1_IRQHandler+0xc2>
     52a:	2018                	lbu	a4,0(s0)
     52c:	82018513          	addi	a0,gp,-2016 # 200000c8 <rx_buffer>
     530:	1779                	addi	a4,a4,-2
     532:	9736                	add	a4,a4,a3
     534:	2310                	lbu	a2,0(a4)
     536:	2018                	lbu	a4,0(s0)
     538:	177d                	addi	a4,a4,-1
     53a:	9736                	add	a4,a4,a3
     53c:	2304                	lbu	s1,0(a4)
     53e:	200c                	lbu	a1,0(s0)
     540:	04a2                	slli	s1,s1,0x8
     542:	15f9                	addi	a1,a1,-2
     544:	0ff5f593          	andi	a1,a1,255
     548:	8cd1                	or	s1,s1,a2
     54a:	2245                	jal	6ea <crc16>
     54c:	82018693          	addi	a3,gp,-2016 # 200000c8 <rx_buffer>
     550:	84218793          	addi	a5,gp,-1982 # 200000ea <rx_index>
     554:	04a49d63          	bne	s1,a0,5ae <USART1_IRQHandler+0x186>
     558:	2290                	lbu	a2,0(a3)
     55a:	84c18593          	addi	a1,gp,-1972 # 200000f4 <received_packet>
     55e:	0ff67613          	andi	a2,a2,255
     562:	84c18623          	sb	a2,-1972(gp) # 200000f4 <received_packet>
     566:	3290                	lbu	a2,1(a3)
     568:	84c18713          	addi	a4,gp,-1972 # 200000f4 <received_packet>
     56c:	456d                	li	a0,27
     56e:	0ff67613          	andi	a2,a2,255
     572:	b190                	sb	a2,1(a1)
     574:	22b0                	lbu	a2,2(a3)
     576:	0ff67613          	andi	a2,a2,255
     57a:	a1b0                	sb	a2,2(a1)
     57c:	4581                	li	a1,0
     57e:	2330                	lbu	a2,2(a4)
     580:	0ff5f313          	andi	t1,a1,255
     584:	00c37463          	bgeu	t1,a2,58c <USART1_IRQHandler+0x164>
     588:	00a59763          	bne	a1,a0,596 <USART1_IRQHandler+0x16e>
     58c:	af66                	sh	s1,30(a4)
     58e:	4685                	li	a3,1
     590:	84d18423          	sb	a3,-1976(gp) # 200000f0 <packet_ready>
     594:	b781                	j	4d4 <USART1_IRQHandler+0xac>
     596:	00358613          	addi	a2,a1,3
     59a:	9636                	add	a2,a2,a3
     59c:	2210                	lbu	a2,0(a2)
     59e:	00b70333          	add	t1,a4,a1
     5a2:	0585                	addi	a1,a1,1
     5a4:	0ff67613          	andi	a2,a2,255
     5a8:	00c301a3          	sb	a2,3(t1)
     5ac:	bfc9                	j	57e <USART1_IRQHandler+0x156>
     5ae:	84018693          	addi	a3,gp,-1984 # 200000e8 <rx_crc_errors>
     5b2:	229a                	lhu	a4,0(a3)
     5b4:	0705                	addi	a4,a4,1
     5b6:	0742                	slli	a4,a4,0x10
     5b8:	8341                	srli	a4,a4,0x10
     5ba:	a29a                	sh	a4,0(a3)
     5bc:	bf21                	j	4d4 <USART1_IRQHandler+0xac>

000005be <RS485_Dir_Init>:
     5be:	ae3ff2ef          	jal	t0,a0 <__riscv_save_0>
     5c2:	1151                	addi	sp,sp,-12
     5c4:	4585                	li	a1,1
     5c6:	4541                	li	a0,16
     5c8:	501000ef          	jal	ra,12c8 <RCC_APB2PeriphClockCmd>
     5cc:	4785                	li	a5,1
     5ce:	807c                	sh	a5,0(sp)
     5d0:	47c1                	li	a5,16
     5d2:	c43e                	sw	a5,8(sp)
     5d4:	858a                	mv	a1,sp
     5d6:	478d                	li	a5,3
     5d8:	40011537          	lui	a0,0x40011
     5dc:	c23e                	sw	a5,4(sp)
     5de:	341000ef          	jal	ra,111e <GPIO_Init>
     5e2:	4585                	li	a1,1
     5e4:	40011537          	lui	a0,0x40011
     5e8:	3b7000ef          	jal	ra,119e <GPIO_ResetBits>
     5ec:	0131                	addi	sp,sp,12
     5ee:	bc75                	j	aa <__riscv_restore_0>

000005f0 <RS485_SetTX>:
     5f0:	ab1ff2ef          	jal	t0,a0 <__riscv_save_0>
     5f4:	4585                	li	a1,1
     5f6:	40011537          	lui	a0,0x40011
     5fa:	3a1000ef          	jal	ra,119a <GPIO_SetBits>
     5fe:	b475                	j	aa <__riscv_restore_0>

00000600 <RS485_SetRX>:
     600:	aa1ff2ef          	jal	t0,a0 <__riscv_save_0>
     604:	4585                	li	a1,1
     606:	40011537          	lui	a0,0x40011
     60a:	395000ef          	jal	ra,119e <GPIO_ResetBits>
     60e:	bc71                	j	aa <__riscv_restore_0>

00000610 <UART_SetInterByteTimeoutMs>:
     610:	a91ff2ef          	jal	t0,a0 <__riscv_save_0>
     614:	842a                	mv	s0,a0
     616:	6505                	lui	a0,0x1
     618:	1151                	addi	sp,sp,-12
     61a:	4585                	li	a1,1
     61c:	80050513          	addi	a0,a0,-2048 # 800 <handle_packet+0x14>
     620:	4a9000ef          	jal	ra,12c8 <RCC_APB2PeriphClockCmd>
     624:	7ba000ef          	jal	ra,dde <SystemCoreClockUpdate>
     628:	200007b7          	lui	a5,0x20000
     62c:	0187a503          	lw	a0,24(a5) # 20000018 <SystemCoreClock>
     630:	3e800593          	li	a1,1000
     634:	3461                	jal	bc <__udivsi3>
     636:	157d                	addi	a0,a0,-1
     638:	0542                	slli	a0,a0,0x10
     63a:	8141                	srli	a0,a0,0x10
     63c:	e011                	bnez	s0,640 <UART_SetInterByteTimeoutMs+0x30>
     63e:	4405                	li	s0,1
     640:	147d                	addi	s0,s0,-1
     642:	8260                	sh	s0,4(sp)
     644:	40013437          	lui	s0,0x40013
     648:	8068                	sh	a0,0(sp)
     64a:	858a                	mv	a1,sp
     64c:	c0040513          	addi	a0,s0,-1024 # 40012c00 <__global_pointer$+0x20012358>
     650:	00011123          	sh	zero,2(sp)
     654:	00011323          	sh	zero,6(sp)
     658:	00010423          	sb	zero,8(sp)
     65c:	48b000ef          	jal	ra,12e6 <TIM_TimeBaseInit>
     660:	c0040513          	addi	a0,s0,-1024
     664:	4585                	li	a1,1
     666:	515000ef          	jal	ra,137a <TIM_ClearITPendingBit>
     66a:	4605                	li	a2,1
     66c:	c0040513          	addi	a0,s0,-1024
     670:	4585                	li	a1,1
     672:	4db000ef          	jal	ra,134c <TIM_ITConfig>
     676:	4581                	li	a1,0
     678:	c0040513          	addi	a0,s0,-1024
     67c:	4b9000ef          	jal	ra,1334 <TIM_Cmd>
     680:	e000e7b7          	lui	a5,0xe000e
     684:	4721                	li	a4,8
     686:	10e7a223          	sw	a4,260(a5) # e000e104 <__global_pointer$+0xc000d85c>
     68a:	0131                	addi	sp,sp,12
     68c:	bc39                	j	aa <__riscv_restore_0>

0000068e <UART_SetAutoInterByteTimeout>:
     68e:	a13ff2ef          	jal	t0,a0 <__riscv_save_0>
     692:	4509                	li	a0,2
     694:	3fb5                	jal	610 <UART_SetInterByteTimeoutMs>
     696:	bc11                	j	aa <__riscv_restore_0>

00000698 <uart_rx_busy>:
     698:	a09ff2ef          	jal	t0,a0 <__riscv_save_0>
     69c:	40014537          	lui	a0,0x40014
     6a0:	02000593          	li	a1,32
     6a4:	80050513          	addi	a0,a0,-2048 # 40013800 <__global_pointer$+0x20012f58>
     6a8:	607000ef          	jal	ra,14ae <USART_GetFlagStatus>
     6ac:	4785                	li	a5,1
     6ae:	e519                	bnez	a0,6bc <uart_rx_busy+0x24>
     6b0:	8421c783          	lbu	a5,-1982(gp) # 200000ea <rx_index>
     6b4:	0ff7f793          	andi	a5,a5,255
     6b8:	00f037b3          	snez	a5,a5
     6bc:	853e                	mv	a0,a5
     6be:	b2f5                	j	aa <__riscv_restore_0>

000006c0 <uart_line_idle>:
     6c0:	9e1ff2ef          	jal	t0,a0 <__riscv_save_0>
     6c4:	8441a403          	lw	s0,-1980(gp) # 200000ec <uart_last_rx_ms>
     6c8:	200007b7          	lui	a5,0x20000
     6cc:	0007a483          	lw	s1,0(a5) # 20000000 <_highcode_vma_end>
     6d0:	3e75                	jal	28c <now_ms>
     6d2:	40850433          	sub	s0,a0,s0
     6d6:	4501                	li	a0,0
     6d8:	00946763          	bltu	s0,s1,6e6 <uart_line_idle+0x26>
     6dc:	3f75                	jal	698 <uart_rx_busy>
     6de:	00154513          	xori	a0,a0,1
     6e2:	0ff57513          	andi	a0,a0,255
     6e6:	8905                	andi	a0,a0,1
     6e8:	b2c9                	j	aa <__riscv_restore_0>

000006ea <crc16>:
     6ea:	67c1                	lui	a5,0x10
     6ec:	7669                	lui	a2,0xffffa
     6ee:	4681                	li	a3,0
     6f0:	17fd                	addi	a5,a5,-1
     6f2:	0605                	addi	a2,a2,1
     6f4:	0ff6f713          	andi	a4,a3,255
     6f8:	00b76463          	bltu	a4,a1,700 <crc16+0x16>
     6fc:	853e                	mv	a0,a5
     6fe:	8082                	ret
     700:	00d50733          	add	a4,a0,a3
     704:	2318                	lbu	a4,0(a4)
     706:	8fb9                	xor	a5,a5,a4
     708:	4721                	li	a4,8
     70a:	0017f293          	andi	t0,a5,1
     70e:	0017d313          	srli	t1,a5,0x1
     712:	87b2                	mv	a5,a2
     714:	00029363          	bnez	t0,71a <crc16+0x30>
     718:	4781                	li	a5,0
     71a:	00f347b3          	xor	a5,t1,a5
     71e:	177d                	addi	a4,a4,-1
     720:	07c2                	slli	a5,a5,0x10
     722:	0ff77713          	andi	a4,a4,255
     726:	83c1                	srli	a5,a5,0x10
     728:	f36d                	bnez	a4,70a <crc16+0x20>
     72a:	0685                	addi	a3,a3,1
     72c:	b7e1                	j	6f4 <crc16+0xa>

0000072e <send_packet>:
     72e:	973ff2ef          	jal	t0,a0 <__riscv_save_0>
     732:	211e                	lhu	a5,0(a0)
     734:	2120                	lbu	s0,2(a0)
     736:	7139                	addi	sp,sp,-64
     738:	807c                	sh	a5,0(sp)
     73a:	84aa                	mv	s1,a0
     73c:	8140                	sb	s0,2(sp)
     73e:	478d                	li	a5,3
     740:	ffd78713          	addi	a4,a5,-3 # fffd <_data_lma+0xe979>
     744:	0ff77713          	andi	a4,a4,255
     748:	04876463          	bltu	a4,s0,790 <send_packet+0x62>
     74c:	00340593          	addi	a1,s0,3
     750:	0ff5f593          	andi	a1,a1,255
     754:	850a                	mv	a0,sp
     756:	3f51                	jal	6ea <crc16>
     758:	009c                	addi	a5,sp,64
     75a:	943e                	add	s0,s0,a5
     75c:	fca401a3          	sb	a0,-61(s0)
     760:	8121                	srli	a0,a0,0x8
     762:	fca40223          	sb	a0,-60(s0)
     766:	4515                	li	a0,5
     768:	362d                	jal	292 <DelayMs>
     76a:	3559                	jal	5f0 <RS485_SetTX>
     76c:	4579                	li	a0,30
     76e:	3615                	jal	292 <DelayMs>
     770:	4401                	li	s0,0
     772:	20bc                	lbu	a5,2(s1)
     774:	0791                	addi	a5,a5,4
     776:	0287d563          	bge	a5,s0,7a0 <send_packet+0x72>
     77a:	40014737          	lui	a4,0x40014
     77e:	80075783          	lhu	a5,-2048(a4) # 40013800 <__global_pointer$+0x20012f58>
     782:	0407f793          	andi	a5,a5,64
     786:	dfe5                	beqz	a5,77e <send_packet+0x50>
     788:	3da5                	jal	600 <RS485_SetRX>
     78a:	6121                	addi	sp,sp,64
     78c:	91fff06f          	j	aa <__riscv_restore_0>
     790:	00f486b3          	add	a3,s1,a5
     794:	2294                	lbu	a3,0(a3)
     796:	00f10733          	add	a4,sp,a5
     79a:	0785                	addi	a5,a5,1
     79c:	a314                	sb	a3,0(a4)
     79e:	b74d                	j	740 <send_packet+0x12>
     7a0:	009c                	addi	a5,sp,64
     7a2:	97a2                	add	a5,a5,s0
     7a4:	fc07c583          	lbu	a1,-64(a5)
     7a8:	40014537          	lui	a0,0x40014
     7ac:	80050513          	addi	a0,a0,-2048 # 40013800 <__global_pointer$+0x20012f58>
     7b0:	4ef000ef          	jal	ra,149e <USART_SendData>
     7b4:	40014737          	lui	a4,0x40014
     7b8:	80075783          	lhu	a5,-2048(a4) # 40013800 <__global_pointer$+0x20012f58>
     7bc:	0807f793          	andi	a5,a5,128
     7c0:	dfe5                	beqz	a5,7b8 <send_packet+0x8a>
     7c2:	0405                	addi	s0,s0,1
     7c4:	0ff47413          	andi	s0,s0,255
     7c8:	b76d                	j	772 <send_packet+0x44>

000007ca <is_uid_match>:
     7ca:	4781                	li	a5,0
     7cc:	4611                	li	a2,4
     7ce:	00f506b3          	add	a3,a0,a5
     7d2:	00f58733          	add	a4,a1,a5
     7d6:	2294                	lbu	a3,0(a3)
     7d8:	2318                	lbu	a4,0(a4)
     7da:	00e69763          	bne	a3,a4,7e8 <is_uid_match+0x1e>
     7de:	0785                	addi	a5,a5,1
     7e0:	fec797e3          	bne	a5,a2,7ce <is_uid_match+0x4>
     7e4:	4505                	li	a0,1
     7e6:	8082                	ret
     7e8:	4501                	li	a0,0
     7ea:	8082                	ret

000007ec <handle_packet>:
     7ec:	8b5ff2ef          	jal	t0,a0 <__riscv_save_0>
     7f0:	3100                	lbu	s0,1(a0)
     7f2:	47c9                	li	a5,18
     7f4:	1161                	addi	sp,sp,-8
     7f6:	2110                	lbu	a2,0(a0)
     7f8:	2134                	lbu	a3,2(a0)
     7fa:	00f40463          	beq	s0,a5,802 <handle_packet+0x16>
     7fe:	88818a23          	sb	s0,-1900(gp) # 2000013c <last_cmd_seen>
     802:	8111c703          	lbu	a4,-2031(gp) # 200000b9 <DEVICE_ADDR>
     806:	01040793          	addi	a5,s0,16
     80a:	0ff7f793          	andi	a5,a5,255
     80e:	4589                	li	a1,2
     810:	e711                	bnez	a4,81c <handle_packet+0x30>
     812:	00f5f763          	bgeu	a1,a5,820 <handle_packet+0x34>
     816:	0121                	addi	sp,sp,8
     818:	893ff06f          	j	aa <__riscv_restore_0>
     81c:	fef5fde3          	bgeu	a1,a5,816 <handle_packet+0x2a>
     820:	00c70a63          	beq	a4,a2,834 <handle_packet+0x48>
     824:	fa6d                	bnez	a2,816 <handle_packet+0x2a>
     826:	47c5                	li	a5,17
     828:	fef417e3          	bne	s0,a5,816 <handle_packet+0x2a>
     82c:	3485                	jal	28c <now_ms>
     82e:	88a1ac23          	sw	a0,-1896(gp) # 20000140 <last_heartbeat_ms>
     832:	b7d5                	j	816 <handle_packet+0x2a>
     834:	464d                	li	a2,19
     836:	00350593          	addi	a1,a0,3
     83a:	2ec40c63          	beq	s0,a2,b32 <handle_packet+0x346>
     83e:	06866a63          	bltu	a2,s0,8b2 <handle_packet+0xc6>
     842:	460d                	li	a2,3
     844:	12c40b63          	beq	s0,a2,97a <handle_packet+0x18e>
     848:	02866f63          	bltu	a2,s0,886 <handle_packet+0x9a>
     84c:	4605                	li	a2,1
     84e:	10c40c63          	beq	s0,a2,966 <handle_packet+0x17a>
     852:	4789                	li	a5,2
     854:	fcf411e3          	bne	s0,a5,816 <handle_packet+0x2a>
     858:	fedd                	bnez	a3,816 <handle_packet+0x2a>
     85a:	957ff0ef          	jal	ra,1b0 <get_moisture>
     85e:	8111c703          	lbu	a4,-2031(gp) # 200000b9 <DEVICE_ADDR>
     862:	4605                	li	a2,1
     864:	86e18623          	sb	a4,-1940(gp) # 20000114 <response_packet>
     868:	86c18793          	addi	a5,gp,-1940 # 20000114 <response_packet>
     86c:	b380                	sb	s0,1(a5)
     86e:	00855713          	srli	a4,a0,0x8
     872:	a3a0                	sb	s0,2(a5)
     874:	0ff77713          	andi	a4,a4,255
     878:	b3b8                	sb	a4,3(a5)
     87a:	0ff57513          	andi	a0,a0,255
     87e:	a3c8                	sb	a0,4(a5)
     880:	88c18623          	sb	a2,-1908(gp) # 20000134 <response_pending>
     884:	bf49                	j	816 <handle_packet+0x2a>
     886:	47c5                	li	a5,17
     888:	faf402e3          	beq	s0,a5,82c <handle_packet+0x40>
     88c:	2087e463          	bltu	a5,s0,a94 <handle_packet+0x2a8>
     890:	4791                	li	a5,4
     892:	f8f412e3          	bne	s0,a5,816 <handle_packet+0x2a>
     896:	f2c1                	bnez	a3,816 <handle_packet+0x2a>
     898:	86e18623          	sb	a4,-1940(gp) # 20000114 <response_packet>
     89c:	86c18493          	addi	s1,gp,-1940 # 20000114 <response_packet>
     8a0:	b080                	sb	s0,1(s1)
     8a2:	4405                	li	s0,1
     8a4:	a0a0                	sb	s0,2(s1)
     8a6:	94fff0ef          	jal	ra,1f4 <valve_is_open>
     8aa:	b0a8                	sb	a0,3(s1)
     8ac:	88818623          	sb	s0,-1908(gp) # 20000134 <response_pending>
     8b0:	b79d                	j	816 <handle_packet+0x2a>
     8b2:	0f100613          	li	a2,241
     8b6:	10c40763          	beq	s0,a2,9c4 <handle_packet+0x1d8>
     8ba:	04866d63          	bltu	a2,s0,914 <handle_packet+0x128>
     8be:	47dd                	li	a5,23
     8c0:	0ef40363          	beq	s0,a5,9a6 <handle_packet+0x1ba>
     8c4:	0f000793          	li	a5,240
     8c8:	f4f417e3          	bne	s0,a5,816 <handle_packet+0x2a>
     8cc:	8f55                	or	a4,a4,a3
     8ce:	f721                	bnez	a4,816 <handle_packet+0x2a>
     8d0:	8141c683          	lbu	a3,-2028(gp) # 200000bc <device_uid>
     8d4:	81418793          	addi	a5,gp,-2028 # 200000bc <device_uid>
     8d8:	3398                	lbu	a4,1(a5)
     8da:	23a0                	lbu	s0,2(a5)
     8dc:	33a4                	lbu	s1,3(a5)
     8de:	86018623          	sb	zero,-1940(gp) # 20000114 <response_packet>
     8e2:	5641                	li	a2,-16
     8e4:	86c18793          	addi	a5,gp,-1940 # 20000114 <response_packet>
     8e8:	b390                	sb	a2,1(a5)
     8ea:	4611                	li	a2,4
     8ec:	a3b0                	sb	a2,2(a5)
     8ee:	b3b4                	sb	a3,3(a5)
     8f0:	a3d8                	sb	a4,4(a5)
     8f2:	b3c0                	sb	s0,5(a5)
     8f4:	0422                	slli	s0,s0,0x8
     8f6:	30047413          	andi	s0,s0,768
     8fa:	a3e4                	sb	s1,6(a5)
     8fc:	4705                	li	a4,1
     8fe:	8c45                	or	s0,s0,s1
     900:	8ae18423          	sb	a4,-1880(gp) # 20000150 <uid_reply_pending>
     904:	06440413          	addi	s0,s0,100
     908:	985ff0ef          	jal	ra,28c <now_ms>
     90c:	9522                	add	a0,a0,s0
     90e:	8aa1a223          	sw	a0,-1884(gp) # 2000014c <uid_reply_at>
     912:	b711                	j	816 <handle_packet+0x2a>
     914:	0f300613          	li	a2,243
     918:	14c40063          	beq	s0,a2,a58 <handle_packet+0x26c>
     91c:	0ec46563          	bltu	s0,a2,a06 <handle_packet+0x21a>
     920:	0f400613          	li	a2,244
     924:	eec419e3          	bne	s0,a2,816 <handle_packet+0x2a>
     928:	3130                	lbu	a2,3(a0)
     92a:	eee616e3          	bne	a2,a4,816 <handle_packet+0x2a>
     92e:	4709                	li	a4,2
     930:	eee693e3          	bne	a3,a4,816 <handle_packet+0x2a>
     934:	2158                	lbu	a4,4(a0)
     936:	0a500793          	li	a5,165
     93a:	ecf71ee3          	bne	a4,a5,816 <handle_packet+0x2a>
     93e:	88e18413          	addi	s0,gp,-1906 # 20000136 <awaiting_reset_commit>
     942:	201c                	lbu	a5,0(s0)
     944:	0ff7f793          	andi	a5,a5,255
     948:	ec0787e3          	beqz	a5,816 <handle_packet+0x2a>
     94c:	4501                	li	a0,0
     94e:	800188a3          	sb	zero,-2031(gp) # 200000b9 <DEVICE_ADDR>
     952:	8a9ff0ef          	jal	ra,1fa <save_device_address>
     956:	00040023          	sb	zero,0(s0)
     95a:	86018623          	sb	zero,-1940(gp) # 20000114 <response_packet>
     95e:	5751                	li	a4,-12
     960:	86c18793          	addi	a5,gp,-1940 # 20000114 <response_packet>
     964:	a0dd                	j	a4a <handle_packet+0x25e>
     966:	ea0698e3          	bnez	a3,816 <handle_packet+0x2a>
     96a:	86e18623          	sb	a4,-1940(gp) # 20000114 <response_packet>
     96e:	86c18793          	addi	a5,gp,-1940 # 20000114 <response_packet>
     972:	b380                	sb	s0,1(a5)
     974:	00078123          	sb	zero,2(a5)
     978:	bf15                	j	8ac <handle_packet+0xc0>
     97a:	4705                	li	a4,1
     97c:	e8e69de3          	bne	a3,a4,816 <handle_packet+0x2a>
     980:	3128                	lbu	a0,3(a0)
     982:	c036                	sw	a3,0(sp)
     984:	00a03533          	snez	a0,a0
     988:	857ff0ef          	jal	ra,1de <set_valve_state>
     98c:	8111c703          	lbu	a4,-2031(gp) # 200000b9 <DEVICE_ADDR>
     990:	4682                	lw	a3,0(sp)
     992:	86e18623          	sb	a4,-1940(gp) # 20000114 <response_packet>
     996:	86c18793          	addi	a5,gp,-1940 # 20000114 <response_packet>
     99a:	b380                	sb	s0,1(a5)
     99c:	00078123          	sb	zero,2(a5)
     9a0:	88d18623          	sb	a3,-1908(gp) # 20000134 <response_pending>
     9a4:	bd8d                	j	816 <handle_packet+0x2a>
     9a6:	e60698e3          	bnez	a3,816 <handle_packet+0x2a>
     9aa:	86e18623          	sb	a4,-1940(gp) # 20000114 <response_packet>
     9ae:	86c18793          	addi	a5,gp,-1940 # 20000114 <response_packet>
     9b2:	b380                	sb	s0,1(a5)
     9b4:	00078123          	sb	zero,2(a5)
     9b8:	4785                	li	a5,1
     9ba:	88f18623          	sb	a5,-1908(gp) # 20000134 <response_pending>
     9be:	88f18ea3          	sb	a5,-1891(gp) # 20000145 <pending_reboot>
     9c2:	bd91                	j	816 <handle_packet+0x2a>
     9c4:	e40719e3          	bnez	a4,816 <handle_packet+0x2a>
     9c8:	4715                	li	a4,5
     9ca:	e4e696e3          	bne	a3,a4,816 <handle_packet+0x2a>
     9ce:	c02a                	sw	a0,0(sp)
     9d0:	81418513          	addi	a0,gp,-2028 # 200000bc <device_uid>
     9d4:	3bdd                	jal	7ca <is_uid_match>
     9d6:	e40500e3          	beqz	a0,816 <handle_packet+0x2a>
     9da:	4782                	lw	a5,0(sp)
     9dc:	4405                	li	s0,1
     9de:	33f8                	lbu	a4,7(a5)
     9e0:	88e18e23          	sb	a4,-1892(gp) # 20000144 <pending_addr>
     9e4:	888186a3          	sb	s0,-1907(gp) # 20000135 <awaiting_address_commit>
     9e8:	8a5ff0ef          	jal	ra,28c <now_ms>
     9ec:	6785                	lui	a5,0x1
     9ee:	38878793          	addi	a5,a5,904 # 1388 <USART_Init+0x2>
     9f2:	953e                	add	a0,a0,a5
     9f4:	88a1a823          	sw	a0,-1904(gp) # 20000138 <commit_deadline>
     9f8:	86018623          	sb	zero,-1940(gp) # 20000114 <response_packet>
     9fc:	5745                	li	a4,-15
     9fe:	86c18793          	addi	a5,gp,-1940 # 20000114 <response_packet>
     a02:	b398                	sb	a4,1(a5)
     a04:	bf85                	j	974 <handle_packet+0x188>
     a06:	e00718e3          	bnez	a4,816 <handle_packet+0x2a>
     a0a:	4791                	li	a5,4
     a0c:	e0f695e3          	bne	a3,a5,816 <handle_packet+0x2a>
     a10:	88d18793          	addi	a5,gp,-1907 # 20000135 <awaiting_address_commit>
     a14:	239c                	lbu	a5,0(a5)
     a16:	88d18413          	addi	s0,gp,-1907 # 20000135 <awaiting_address_commit>
     a1a:	0ff7f793          	andi	a5,a5,255
     a1e:	de078ce3          	beqz	a5,816 <handle_packet+0x2a>
     a22:	81418513          	addi	a0,gp,-2028 # 200000bc <device_uid>
     a26:	3355                	jal	7ca <is_uid_match>
     a28:	de0507e3          	beqz	a0,816 <handle_packet+0x2a>
     a2c:	89c1c503          	lbu	a0,-1892(gp) # 20000144 <pending_addr>
     a30:	80a188a3          	sb	a0,-2031(gp) # 200000b9 <DEVICE_ADDR>
     a34:	fc6ff0ef          	jal	ra,1fa <save_device_address>
     a38:	8111c703          	lbu	a4,-2031(gp) # 200000b9 <DEVICE_ADDR>
     a3c:	00040023          	sb	zero,0(s0)
     a40:	86e18623          	sb	a4,-1940(gp) # 20000114 <response_packet>
     a44:	86c18793          	addi	a5,gp,-1940 # 20000114 <response_packet>
     a48:	5749                	li	a4,-14
     a4a:	b398                	sb	a4,1(a5)
     a4c:	00078123          	sb	zero,2(a5)
     a50:	4705                	li	a4,1
     a52:	88e18623          	sb	a4,-1908(gp) # 20000134 <response_pending>
     a56:	b3c1                	j	816 <handle_packet+0x2a>
     a58:	3130                	lbu	a2,3(a0)
     a5a:	dae61ee3          	bne	a2,a4,816 <handle_packet+0x2a>
     a5e:	4709                	li	a4,2
     a60:	dae69be3          	bne	a3,a4,816 <handle_packet+0x2a>
     a64:	2158                	lbu	a4,4(a0)
     a66:	0a500793          	li	a5,165
     a6a:	daf716e3          	bne	a4,a5,816 <handle_packet+0x2a>
     a6e:	4405                	li	s0,1
     a70:	88818723          	sb	s0,-1906(gp) # 20000136 <awaiting_reset_commit>
     a74:	819ff0ef          	jal	ra,28c <now_ms>
     a78:	6785                	lui	a5,0x1
     a7a:	38878793          	addi	a5,a5,904 # 1388 <USART_Init+0x2>
     a7e:	8111c703          	lbu	a4,-2031(gp) # 200000b9 <DEVICE_ADDR>
     a82:	953e                	add	a0,a0,a5
     a84:	8aa1a023          	sw	a0,-1888(gp) # 20000148 <reset_commit_deadline>
     a88:	86e18623          	sb	a4,-1940(gp) # 20000114 <response_packet>
     a8c:	86c18793          	addi	a5,gp,-1940 # 20000114 <response_packet>
     a90:	574d                	li	a4,-13
     a92:	bf85                	j	a02 <handle_packet+0x216>
     a94:	88d1c783          	lbu	a5,-1907(gp) # 20000135 <awaiting_address_commit>
     a98:	88e1c703          	lbu	a4,-1906(gp) # 20000136 <awaiting_reset_commit>
     a9c:	0ff7f793          	andi	a5,a5,255
     aa0:	0ff77713          	andi	a4,a4,255
     aa4:	c319                	beqz	a4,aaa <handle_packet+0x2be>
     aa6:	0027e793          	ori	a5,a5,2
     aaa:	c23e                	sw	a5,4(sp)
     aac:	fe0ff0ef          	jal	ra,28c <now_ms>
     ab0:	3e800593          	li	a1,1000
     ab4:	e08ff0ef          	jal	ra,bc <__udivsi3>
     ab8:	8111c683          	lbu	a3,-2031(gp) # 200000b9 <DEVICE_ADDR>
     abc:	4792                	lw	a5,4(sp)
     abe:	86d18623          	sb	a3,-1940(gp) # 20000114 <response_packet>
     ac2:	86c18413          	addi	s0,gp,-1940 # 20000114 <response_packet>
     ac6:	46c9                	li	a3,18
     ac8:	b014                	sb	a3,1(s0)
     aca:	46b9                	li	a3,14
     acc:	a034                	sb	a3,2(s0)
     ace:	b03c                	sb	a5,3(s0)
     ad0:	c02a                	sw	a0,0(sp)
     ad2:	f22ff0ef          	jal	ra,1f4 <valve_is_open>
     ad6:	8111c783          	lbu	a5,-2031(gp) # 200000b9 <DEVICE_ADDR>
     ada:	a048                	sb	a0,4(s0)
     adc:	4702                	lw	a4,0(sp)
     ade:	b05c                	sb	a5,5(s0)
     ae0:	8941c783          	lbu	a5,-1900(gp) # 2000013c <last_cmd_seen>
     ae4:	0ff77513          	andi	a0,a4,255
     ae8:	0ff7f793          	andi	a5,a5,255
     aec:	a07c                	sb	a5,6(s0)
     aee:	01075793          	srli	a5,a4,0x10
     af2:	000403a3          	sb	zero,7(s0)
     af6:	0ff7f793          	andi	a5,a5,255
     afa:	a41c                	sb	a5,8(s0)
     afc:	00875793          	srli	a5,a4,0x8
     b00:	0ff7f793          	andi	a5,a5,255
     b04:	b41c                	sb	a5,9(s0)
     b06:	a428                	sb	a0,10(s0)
     b08:	8401d783          	lhu	a5,-1984(gp) # 200000e8 <rx_crc_errors>
     b0c:	83a1                	srli	a5,a5,0x8
     b0e:	b43c                	sb	a5,11(s0)
     b10:	8401d783          	lhu	a5,-1984(gp) # 200000e8 <rx_crc_errors>
     b14:	0ff7f793          	andi	a5,a5,255
     b18:	a45c                	sb	a5,12(s0)
     b1a:	8141c703          	lbu	a4,-2028(gp) # 200000bc <device_uid>
     b1e:	81418793          	addi	a5,gp,-2028 # 200000bc <device_uid>
     b22:	b458                	sb	a4,13(s0)
     b24:	3398                	lbu	a4,1(a5)
     b26:	a478                	sb	a4,14(s0)
     b28:	23b8                	lbu	a4,2(a5)
     b2a:	33bc                	lbu	a5,3(a5)
     b2c:	b478                	sb	a4,15(s0)
     b2e:	a81c                	sb	a5,16(s0)
     b30:	b705                	j	a50 <handle_packet+0x264>
     b32:	4609                	li	a2,2
     b34:	cec691e3          	bne	a3,a2,816 <handle_packet+0x2a>
     b38:	3134                	lbu	a3,3(a0)
     b3a:	215c                	lbu	a5,4(a0)
     b3c:	65b9                	lui	a1,0xe
     b3e:	06a2                	slli	a3,a3,0x8
     b40:	8fd5                	or	a5,a5,a3
     b42:	c1878513          	addi	a0,a5,-1000
     b46:	0542                	slli	a0,a0,0x10
     b48:	8141                	srli	a0,a0,0x10
     b4a:	67858593          	addi	a1,a1,1656 # e678 <_data_lma+0xcff4>
     b4e:	86c18693          	addi	a3,gp,-1940 # 20000114 <response_packet>
     b52:	00a5ef63          	bltu	a1,a0,b70 <handle_packet+0x384>
     b56:	200005b7          	lui	a1,0x20000
     b5a:	00f5a223          	sw	a5,4(a1) # 20000004 <heartbeat_timeout_ms>
     b5e:	86e18623          	sb	a4,-1940(gp) # 20000114 <response_packet>
     b62:	b280                	sb	s0,1(a3)
     b64:	00068123          	sb	zero,2(a3) # 1000002 <_data_lma+0xffe97e>
     b68:	4785                	li	a5,1
     b6a:	88f18623          	sb	a5,-1908(gp) # 20000134 <response_pending>
     b6e:	b165                	j	816 <handle_packet+0x2a>
     b70:	86e18623          	sb	a4,-1940(gp) # 20000114 <response_packet>
     b74:	b280                	sb	s0,1(a3)
     b76:	4785                	li	a5,1
     b78:	a2bc                	sb	a5,2(a3)
     b7a:	b2bc                	sb	a5,3(a3)
     b7c:	b7fd                	j	b6a <handle_packet+0x37e>

00000b7e <protocol_poll>:
     b7e:	d22ff2ef          	jal	t0,a0 <__riscv_save_0>
     b82:	8a818413          	addi	s0,gp,-1880 # 20000150 <uid_reply_pending>
     b86:	201c                	lbu	a5,0(s0)
     b88:	1171                	addi	sp,sp,-4
     b8a:	0ff7f793          	andi	a5,a5,255
     b8e:	c38d                	beqz	a5,bb0 <protocol_poll+0x32>
     b90:	8a41a783          	lw	a5,-1884(gp) # 2000014c <uid_reply_at>
     b94:	c03e                	sw	a5,0(sp)
     b96:	ef6ff0ef          	jal	ra,28c <now_ms>
     b9a:	4782                	lw	a5,0(sp)
     b9c:	8d1d                	sub	a0,a0,a5
     b9e:	00054963          	bltz	a0,bb0 <protocol_poll+0x32>
     ba2:	3e39                	jal	6c0 <uart_line_idle>
     ba4:	c511                	beqz	a0,bb0 <protocol_poll+0x32>
     ba6:	00040023          	sb	zero,0(s0)
     baa:	4785                	li	a5,1
     bac:	88f18623          	sb	a5,-1908(gp) # 20000134 <response_pending>
     bb0:	88d18413          	addi	s0,gp,-1907 # 20000135 <awaiting_address_commit>
     bb4:	201c                	lbu	a5,0(s0)
     bb6:	0ff7f793          	andi	a5,a5,255
     bba:	cf81                	beqz	a5,bd2 <protocol_poll+0x54>
     bbc:	8901a783          	lw	a5,-1904(gp) # 20000138 <commit_deadline>
     bc0:	c03e                	sw	a5,0(sp)
     bc2:	ecaff0ef          	jal	ra,28c <now_ms>
     bc6:	4782                	lw	a5,0(sp)
     bc8:	8d1d                	sub	a0,a0,a5
     bca:	00054463          	bltz	a0,bd2 <protocol_poll+0x54>
     bce:	00040023          	sb	zero,0(s0)
     bd2:	88e18413          	addi	s0,gp,-1906 # 20000136 <awaiting_reset_commit>
     bd6:	201c                	lbu	a5,0(s0)
     bd8:	0ff7f793          	andi	a5,a5,255
     bdc:	cf81                	beqz	a5,bf4 <protocol_poll+0x76>
     bde:	8a01a783          	lw	a5,-1888(gp) # 20000148 <reset_commit_deadline>
     be2:	c03e                	sw	a5,0(sp)
     be4:	ea8ff0ef          	jal	ra,28c <now_ms>
     be8:	4782                	lw	a5,0(sp)
     bea:	8d1d                	sub	a0,a0,a5
     bec:	00054463          	bltz	a0,bf4 <protocol_poll+0x76>
     bf0:	00040023          	sb	zero,0(s0)
     bf4:	8481c783          	lbu	a5,-1976(gp) # 200000f0 <packet_ready>
     bf8:	0ff7f793          	andi	a5,a5,255
     bfc:	c791                	beqz	a5,c08 <protocol_poll+0x8a>
     bfe:	84c18513          	addi	a0,gp,-1972 # 200000f4 <received_packet>
     c02:	84018423          	sb	zero,-1976(gp) # 200000f0 <packet_ready>
     c06:	36dd                	jal	7ec <handle_packet>
     c08:	88c1c783          	lbu	a5,-1908(gp) # 20000134 <response_pending>
     c0c:	0ff7f793          	andi	a5,a5,255
     c10:	cb89                	beqz	a5,c22 <protocol_poll+0xa4>
     c12:	aafff0ef          	jal	ra,6c0 <uart_line_idle>
     c16:	c511                	beqz	a0,c22 <protocol_poll+0xa4>
     c18:	86c18513          	addi	a0,gp,-1940 # 20000114 <response_packet>
     c1c:	88018623          	sb	zero,-1908(gp) # 20000134 <response_pending>
     c20:	3639                	jal	72e <send_packet>
     c22:	89d18793          	addi	a5,gp,-1891 # 20000145 <pending_reboot>
     c26:	2398                	lbu	a4,0(a5)
     c28:	0ff77713          	andi	a4,a4,255
     c2c:	c709                	beqz	a4,c36 <protocol_poll+0xb8>
     c2e:	00078023          	sb	zero,0(a5)
     c32:	e42ff0ef          	jal	ra,274 <system_soft_reset>
     c36:	dbeff0ef          	jal	ra,1f4 <valve_is_open>
     c3a:	cd19                	beqz	a0,c58 <protocol_poll+0xda>
     c3c:	e50ff0ef          	jal	ra,28c <now_ms>
     c40:	8981a783          	lw	a5,-1896(gp) # 20000140 <last_heartbeat_ms>
     c44:	20000737          	lui	a4,0x20000
     c48:	00472703          	lw	a4,4(a4) # 20000004 <heartbeat_timeout_ms>
     c4c:	8d1d                	sub	a0,a0,a5
     c4e:	00a77563          	bgeu	a4,a0,c58 <protocol_poll+0xda>
     c52:	4501                	li	a0,0
     c54:	d8aff0ef          	jal	ra,1de <set_valve_state>
     c58:	0111                	addi	sp,sp,4
     c5a:	c50ff06f          	j	aa <__riscv_restore_0>

00000c5e <NMI_Handler>:
     c5e:	a001                	j	c5e <NMI_Handler>

00000c60 <HardFault_Handler>:
     c60:	beef07b7          	lui	a5,0xbeef0
     c64:	e000e737          	lui	a4,0xe000e
     c68:	08078793          	addi	a5,a5,128 # beef0080 <__global_pointer$+0x9eeef7d8>
     c6c:	c73c                	sw	a5,72(a4)
     c6e:	a001                	j	c6e <HardFault_Handler+0xe>

00000c70 <main>:
     c70:	c30ff2ef          	jal	t0,a0 <__riscv_save_0>
     c74:	4505                	li	a0,1
     c76:	2b1d                	jal	11ac <NVIC_PriorityGroupConfig>
     c78:	e000f7b7          	lui	a5,0xe000f
     c7c:	4788                	lw	a0,8(a5)
     c7e:	09d000ef          	jal	ra,151a <srand>
     c82:	e42ff0ef          	jal	ra,2c4 <DelayInit>
     c86:	3e800513          	li	a0,1000
     c8a:	e08ff0ef          	jal	ra,292 <DelayMs>
     c8e:	db6ff0ef          	jal	ra,244 <init_device>
     c92:	92dff0ef          	jal	ra,5be <RS485_Dir_Init>
     c96:	e6cff0ef          	jal	ra,302 <USARTx_CFG>
     c9a:	9f5ff0ef          	jal	ra,68e <UART_SetAutoInterByteTimeout>
     c9e:	c94ff0ef          	jal	ra,132 <moisture_sensor_init>
     ca2:	95fff0ef          	jal	ra,600 <RS485_SetRX>
     ca6:	3de1                	jal	b7e <protocol_poll>
     ca8:	bffd                	j	ca6 <main+0x36>

00000caa <SystemInit>:
     caa:	bf6ff2ef          	jal	t0,a0 <__riscv_save_0>
     cae:	40021437          	lui	s0,0x40021
     cb2:	401c                	lw	a5,0(s0)
     cb4:	f8ff0737          	lui	a4,0xf8ff0
     cb8:	1161                	addi	sp,sp,-8
     cba:	0017e793          	ori	a5,a5,1
     cbe:	c01c                	sw	a5,0(s0)
     cc0:	405c                	lw	a5,4(s0)
     cc2:	4541                	li	a0,16
     cc4:	8ff9                	and	a5,a5,a4
     cc6:	c05c                	sw	a5,4(s0)
     cc8:	401c                	lw	a5,0(s0)
     cca:	fef70737          	lui	a4,0xfef70
     cce:	177d                	addi	a4,a4,-1
     cd0:	8ff9                	and	a5,a5,a4
     cd2:	c01c                	sw	a5,0(s0)
     cd4:	401c                	lw	a5,0(s0)
     cd6:	fffc0737          	lui	a4,0xfffc0
     cda:	177d                	addi	a4,a4,-1
     cdc:	8ff9                	and	a5,a5,a4
     cde:	c01c                	sw	a5,0(s0)
     ce0:	405c                	lw	a5,4(s0)
     ce2:	7741                	lui	a4,0xffff0
     ce4:	177d                	addi	a4,a4,-1
     ce6:	8ff9                	and	a5,a5,a4
     ce8:	c05c                	sw	a5,4(s0)
     cea:	009f07b7          	lui	a5,0x9f0
     cee:	c41c                	sw	a5,8(s0)
     cf0:	2315                	jal	1214 <RCC_AdjustHSICalibrationValue>
     cf2:	4c1c                	lw	a5,24(s0)
     cf4:	00020637          	lui	a2,0x20
     cf8:	0207e793          	ori	a5,a5,32
     cfc:	cc1c                	sw	a5,24(s0)
     cfe:	400117b7          	lui	a5,0x40011
     d02:	4007a703          	lw	a4,1024(a5) # 40011400 <__global_pointer$+0x20010b58>
     d06:	40078693          	addi	a3,a5,1024
     d0a:	f0f77713          	andi	a4,a4,-241
     d0e:	40e7a023          	sw	a4,1024(a5)
     d12:	4007a703          	lw	a4,1024(a5)
     d16:	08076713          	ori	a4,a4,128
     d1a:	40e7a023          	sw	a4,1024(a5)
     d1e:	4789                	li	a5,2
     d20:	ca9c                	sw	a5,16(a3)
     d22:	c002                	sw	zero,0(sp)
     d24:	c202                	sw	zero,4(sp)
     d26:	4c1c                	lw	a5,24(s0)
     d28:	40010737          	lui	a4,0x40010
     d2c:	66a1                	lui	a3,0x8
     d2e:	0017e793          	ori	a5,a5,1
     d32:	cc1c                	sw	a5,24(s0)
     d34:	435c                	lw	a5,4(a4)
     d36:	8fd5                	or	a5,a5,a3
     d38:	c35c                	sw	a5,4(a4)
     d3a:	401c                	lw	a5,0(s0)
     d3c:	6741                	lui	a4,0x10
     d3e:	400216b7          	lui	a3,0x40021
     d42:	8fd9                	or	a5,a5,a4
     d44:	c01c                	sw	a5,0(s0)
     d46:	6709                	lui	a4,0x2
     d48:	429c                	lw	a5,0(a3)
     d4a:	8ff1                	and	a5,a5,a2
     d4c:	c23e                	sw	a5,4(sp)
     d4e:	4782                	lw	a5,0(sp)
     d50:	0785                	addi	a5,a5,1
     d52:	c03e                	sw	a5,0(sp)
     d54:	4792                	lw	a5,4(sp)
     d56:	e781                	bnez	a5,d5e <SystemInit+0xb4>
     d58:	4782                	lw	a5,0(sp)
     d5a:	fee797e3          	bne	a5,a4,d48 <SystemInit+0x9e>
     d5e:	400217b7          	lui	a5,0x40021
     d62:	439c                	lw	a5,0(a5)
     d64:	00e79713          	slli	a4,a5,0xe
     d68:	06075963          	bgez	a4,dda <SystemInit+0x130>
     d6c:	4785                	li	a5,1
     d6e:	c23e                	sw	a5,4(sp)
     d70:	4712                	lw	a4,4(sp)
     d72:	4785                	li	a5,1
     d74:	06f71063          	bne	a4,a5,dd4 <SystemInit+0x12a>
     d78:	400227b7          	lui	a5,0x40022
     d7c:	4398                	lw	a4,0(a5)
     d7e:	76c1                	lui	a3,0xffff0
     d80:	16fd                	addi	a3,a3,-1
     d82:	9b71                	andi	a4,a4,-4
     d84:	c398                	sw	a4,0(a5)
     d86:	4398                	lw	a4,0(a5)
     d88:	00176713          	ori	a4,a4,1
     d8c:	c398                	sw	a4,0(a5)
     d8e:	400217b7          	lui	a5,0x40021
     d92:	43d8                	lw	a4,4(a5)
     d94:	c3d8                	sw	a4,4(a5)
     d96:	43d8                	lw	a4,4(a5)
     d98:	8f75                	and	a4,a4,a3
     d9a:	c3d8                	sw	a4,4(a5)
     d9c:	43d8                	lw	a4,4(a5)
     d9e:	66c1                	lui	a3,0x10
     da0:	8f55                	or	a4,a4,a3
     da2:	c3d8                	sw	a4,4(a5)
     da4:	4398                	lw	a4,0(a5)
     da6:	010006b7          	lui	a3,0x1000
     daa:	8f55                	or	a4,a4,a3
     dac:	c398                	sw	a4,0(a5)
     dae:	4398                	lw	a4,0(a5)
     db0:	00671693          	slli	a3,a4,0x6
     db4:	fe06dde3          	bgez	a3,dae <SystemInit+0x104>
     db8:	43d8                	lw	a4,4(a5)
     dba:	400216b7          	lui	a3,0x40021
     dbe:	9b71                	andi	a4,a4,-4
     dc0:	c3d8                	sw	a4,4(a5)
     dc2:	43d8                	lw	a4,4(a5)
     dc4:	00276713          	ori	a4,a4,2
     dc8:	c3d8                	sw	a4,4(a5)
     dca:	4721                	li	a4,8
     dcc:	42dc                	lw	a5,4(a3)
     dce:	8bb1                	andi	a5,a5,12
     dd0:	fee79ee3          	bne	a5,a4,dcc <SystemInit+0x122>
     dd4:	0121                	addi	sp,sp,8
     dd6:	ad4ff06f          	j	aa <__riscv_restore_0>
     dda:	c202                	sw	zero,4(sp)
     ddc:	bf51                	j	d70 <SystemInit+0xc6>

00000dde <SystemCoreClockUpdate>:
     dde:	ac2ff2ef          	jal	t0,a0 <__riscv_save_0>
     de2:	40021737          	lui	a4,0x40021
     de6:	435c                	lw	a5,4(a4)
     de8:	20000437          	lui	s0,0x20000
     dec:	4691                	li	a3,4
     dee:	8bb1                	andi	a5,a5,12
     df0:	01840413          	addi	s0,s0,24 # 20000018 <SystemCoreClock>
     df4:	00d78563          	beq	a5,a3,dfe <SystemCoreClockUpdate+0x20>
     df8:	46a1                	li	a3,8
     dfa:	04d78263          	beq	a5,a3,e3e <SystemCoreClockUpdate+0x60>
     dfe:	016e37b7          	lui	a5,0x16e3
     e02:	60078793          	addi	a5,a5,1536 # 16e3600 <_data_lma+0x16e1f7c>
     e06:	c01c                	sw	a5,0(s0)
     e08:	400216b7          	lui	a3,0x40021
     e0c:	42dc                	lw	a5,4(a3)
     e0e:	4008                	lw	a0,0(s0)
     e10:	8391                	srli	a5,a5,0x4
     e12:	00f7f713          	andi	a4,a5,15
     e16:	200007b7          	lui	a5,0x20000
     e1a:	00878793          	addi	a5,a5,8 # 20000008 <AHBPrescTable>
     e1e:	97ba                	add	a5,a5,a4
     e20:	238c                	lbu	a1,0(a5)
     e22:	42dc                	lw	a5,4(a3)
     e24:	0ff5f593          	andi	a1,a1,255
     e28:	0807f793          	andi	a5,a5,128
     e2c:	00b55733          	srl	a4,a0,a1
     e30:	e781                	bnez	a5,e38 <SystemCoreClockUpdate+0x5a>
     e32:	a8aff0ef          	jal	ra,bc <__udivsi3>
     e36:	872a                	mv	a4,a0
     e38:	c018                	sw	a4,0(s0)
     e3a:	a70ff06f          	j	aa <__riscv_restore_0>
     e3e:	435c                	lw	a5,4(a4)
     e40:	02dc77b7          	lui	a5,0x2dc7
     e44:	c0078793          	addi	a5,a5,-1024 # 2dc6c00 <_data_lma+0x2dc557c>
     e48:	bf7d                	j	e06 <SystemCoreClockUpdate+0x28>

00000e4a <ADC1_IRQHandler>:
     e4a:	a001                	j	e4a <ADC1_IRQHandler>

00000e4c <handle_reset>:
     e4c:	20000197          	auipc	gp,0x20000
     e50:	a5c18193          	addi	gp,gp,-1444 # 200008a8 <__global_pointer$>
     e54:	f5818113          	addi	sp,gp,-168 # 20000800 <_eusrstack>
     e58:	0a000513          	li	a0,160
     e5c:	1ffff597          	auipc	a1,0x1ffff
     e60:	1a458593          	addi	a1,a1,420 # 20000000 <_highcode_vma_end>
     e64:	1ffff617          	auipc	a2,0x1ffff
     e68:	19c60613          	addi	a2,a2,412 # 20000000 <_highcode_vma_end>
     e6c:	00c5fa63          	bgeu	a1,a2,e80 <handle_reset+0x34>
     e70:	00052283          	lw	t0,0(a0)
     e74:	0055a023          	sw	t0,0(a1)
     e78:	0511                	addi	a0,a0,4
     e7a:	0591                	addi	a1,a1,4
     e7c:	fec5eae3          	bltu	a1,a2,e70 <handle_reset+0x24>
     e80:	00001517          	auipc	a0,0x1
     e84:	80450513          	addi	a0,a0,-2044 # 1684 <_data_lma>
     e88:	1ffff597          	auipc	a1,0x1ffff
     e8c:	17858593          	addi	a1,a1,376 # 20000000 <_highcode_vma_end>
     e90:	80818613          	addi	a2,gp,-2040 # 200000b0 <_edata>
     e94:	00c5fa63          	bgeu	a1,a2,ea8 <handle_reset+0x5c>
     e98:	00052283          	lw	t0,0(a0)
     e9c:	0055a023          	sw	t0,0(a1)
     ea0:	0511                	addi	a0,a0,4
     ea2:	0591                	addi	a1,a1,4
     ea4:	fec5eae3          	bltu	a1,a2,e98 <handle_reset+0x4c>
     ea8:	80818513          	addi	a0,gp,-2040 # 200000b0 <_edata>
     eac:	8b418593          	addi	a1,gp,-1868 # 2000015c <_ebss>
     eb0:	00b57763          	bgeu	a0,a1,ebe <handle_reset+0x72>
     eb4:	00052023          	sw	zero,0(a0)
     eb8:	0511                	addi	a0,a0,4
     eba:	feb56de3          	bltu	a0,a1,eb4 <handle_reset+0x68>
     ebe:	000022b7          	lui	t0,0x2
     ec2:	88028293          	addi	t0,t0,-1920 # 1880 <_data_lma+0x1fc>
     ec6:	30029073          	csrw	mstatus,t0
     eca:	428d                	li	t0,3
     ecc:	80429073          	csrw	0x804,t0
     ed0:	fffff297          	auipc	t0,0xfffff
     ed4:	13028293          	addi	t0,t0,304 # 0 <_sinit>
     ed8:	0032e293          	ori	t0,t0,3
     edc:	30529073          	csrw	mtvec,t0
     ee0:	dcbff0ef          	jal	ra,caa <SystemInit>
     ee4:	00000297          	auipc	t0,0x0
     ee8:	d8c28293          	addi	t0,t0,-628 # c70 <main>
     eec:	34129073          	csrw	mepc,t0
     ef0:	30200073          	mret

00000ef4 <ADC_Init>:
     ef4:	415c                	lw	a5,4(a0)
     ef6:	fff10737          	lui	a4,0xfff10
     efa:	eff70713          	addi	a4,a4,-257 # fff0feff <__global_pointer$+0xdff0f657>
     efe:	8f7d                	and	a4,a4,a5
     f00:	41dc                	lw	a5,4(a1)
     f02:	4194                	lw	a3,0(a1)
     f04:	07a2                	slli	a5,a5,0x8
     f06:	8fd5                	or	a5,a5,a3
     f08:	8fd9                	or	a5,a5,a4
     f0a:	c15c                	sw	a5,4(a0)
     f0c:	451c                	lw	a5,8(a0)
     f0e:	fff1f737          	lui	a4,0xfff1f
     f12:	7fd70713          	addi	a4,a4,2045 # fff1f7fd <__global_pointer$+0xdff1ef55>
     f16:	45d4                	lw	a3,12(a1)
     f18:	8f7d                	and	a4,a4,a5
     f1a:	499c                	lw	a5,16(a1)
     f1c:	8fd5                	or	a5,a5,a3
     f1e:	4594                	lw	a3,8(a1)
     f20:	0686                	slli	a3,a3,0x1
     f22:	8fd5                	or	a5,a5,a3
     f24:	8fd9                	or	a5,a5,a4
     f26:	c51c                	sw	a5,8(a0)
     f28:	555c                	lw	a5,44(a0)
     f2a:	ff100737          	lui	a4,0xff100
     f2e:	177d                	addi	a4,a4,-1
     f30:	8f7d                	and	a4,a4,a5
     f32:	29dc                	lbu	a5,20(a1)
     f34:	17fd                	addi	a5,a5,-1
     f36:	0ff7f793          	andi	a5,a5,255
     f3a:	07d2                	slli	a5,a5,0x14
     f3c:	8fd9                	or	a5,a5,a4
     f3e:	d55c                	sw	a5,44(a0)
     f40:	8082                	ret

00000f42 <ADC_Cmd>:
     f42:	451c                	lw	a5,8(a0)
     f44:	c589                	beqz	a1,f4e <ADC_Cmd+0xc>
     f46:	0017e793          	ori	a5,a5,1
     f4a:	c51c                	sw	a5,8(a0)
     f4c:	8082                	ret
     f4e:	9bf9                	andi	a5,a5,-2
     f50:	bfed                	j	f4a <ADC_Cmd+0x8>

00000f52 <ADC_ResetCalibration>:
     f52:	451c                	lw	a5,8(a0)
     f54:	0087e793          	ori	a5,a5,8
     f58:	c51c                	sw	a5,8(a0)
     f5a:	8082                	ret

00000f5c <ADC_GetResetCalibrationStatus>:
     f5c:	4508                	lw	a0,8(a0)
     f5e:	810d                	srli	a0,a0,0x3
     f60:	8905                	andi	a0,a0,1
     f62:	8082                	ret

00000f64 <ADC_StartCalibration>:
     f64:	451c                	lw	a5,8(a0)
     f66:	0047e793          	ori	a5,a5,4
     f6a:	c51c                	sw	a5,8(a0)
     f6c:	8082                	ret

00000f6e <ADC_SoftwareStartConvCmd>:
     f6e:	451c                	lw	a5,8(a0)
     f70:	c591                	beqz	a1,f7c <ADC_SoftwareStartConvCmd+0xe>
     f72:	00500737          	lui	a4,0x500
     f76:	8fd9                	or	a5,a5,a4
     f78:	c51c                	sw	a5,8(a0)
     f7a:	8082                	ret
     f7c:	ffb00737          	lui	a4,0xffb00
     f80:	177d                	addi	a4,a4,-1
     f82:	8ff9                	and	a5,a5,a4
     f84:	bfd5                	j	f78 <ADC_SoftwareStartConvCmd+0xa>

00000f86 <ADC_RegularChannelConfig>:
     f86:	47a5                	li	a5,9
     f88:	04b7f863          	bgeu	a5,a1,fd8 <ADC_RegularChannelConfig+0x52>
     f8c:	ff658713          	addi	a4,a1,-10
     f90:	00171793          	slli	a5,a4,0x1
     f94:	00c52283          	lw	t0,12(a0)
     f98:	97ba                	add	a5,a5,a4
     f9a:	431d                	li	t1,7
     f9c:	00f31333          	sll	t1,t1,a5
     fa0:	fff34313          	not	t1,t1
     fa4:	00537333          	and	t1,t1,t0
     fa8:	00f697b3          	sll	a5,a3,a5
     fac:	0067e7b3          	or	a5,a5,t1
     fb0:	c55c                	sw	a5,12(a0)
     fb2:	4799                	li	a5,6
     fb4:	04c7e363          	bltu	a5,a2,ffa <ADC_RegularChannelConfig+0x74>
     fb8:	167d                	addi	a2,a2,-1
     fba:	00261793          	slli	a5,a2,0x2
     fbe:	963e                	add	a2,a2,a5
     fc0:	5958                	lw	a4,52(a0)
     fc2:	47fd                	li	a5,31
     fc4:	00c797b3          	sll	a5,a5,a2
     fc8:	fff7c793          	not	a5,a5
     fcc:	8ff9                	and	a5,a5,a4
     fce:	00c595b3          	sll	a1,a1,a2
     fd2:	8ddd                	or	a1,a1,a5
     fd4:	d94c                	sw	a1,52(a0)
     fd6:	8082                	ret
     fd8:	00159793          	slli	a5,a1,0x1
     fdc:	01052303          	lw	t1,16(a0)
     fe0:	97ae                	add	a5,a5,a1
     fe2:	471d                	li	a4,7
     fe4:	00f71733          	sll	a4,a4,a5
     fe8:	fff74713          	not	a4,a4
     fec:	00677733          	and	a4,a4,t1
     ff0:	00f697b3          	sll	a5,a3,a5
     ff4:	8f5d                	or	a4,a4,a5
     ff6:	c918                	sw	a4,16(a0)
     ff8:	bf6d                	j	fb2 <ADC_RegularChannelConfig+0x2c>
     ffa:	47b1                	li	a5,12
     ffc:	02c7e263          	bltu	a5,a2,1020 <ADC_RegularChannelConfig+0x9a>
    1000:	1665                	addi	a2,a2,-7
    1002:	00261793          	slli	a5,a2,0x2
    1006:	963e                	add	a2,a2,a5
    1008:	5918                	lw	a4,48(a0)
    100a:	47fd                	li	a5,31
    100c:	00c797b3          	sll	a5,a5,a2
    1010:	fff7c793          	not	a5,a5
    1014:	8ff9                	and	a5,a5,a4
    1016:	00c595b3          	sll	a1,a1,a2
    101a:	8ddd                	or	a1,a1,a5
    101c:	d90c                	sw	a1,48(a0)
    101e:	8082                	ret
    1020:	164d                	addi	a2,a2,-13
    1022:	00261713          	slli	a4,a2,0x2
    1026:	5554                	lw	a3,44(a0)
    1028:	963a                	add	a2,a2,a4
    102a:	47fd                	li	a5,31
    102c:	00c797b3          	sll	a5,a5,a2
    1030:	fff7c793          	not	a5,a5
    1034:	8ff5                	and	a5,a5,a3
    1036:	00c595b3          	sll	a1,a1,a2
    103a:	8ddd                	or	a1,a1,a5
    103c:	d54c                	sw	a1,44(a0)
    103e:	8082                	ret

00001040 <ADC_GetConversionValue>:
    1040:	4568                	lw	a0,76(a0)
    1042:	0542                	slli	a0,a0,0x10
    1044:	8141                	srli	a0,a0,0x10
    1046:	8082                	ret

00001048 <ADC_GetFlagStatus>:
    1048:	4108                	lw	a0,0(a0)
    104a:	8d6d                	and	a0,a0,a1
    104c:	00a03533          	snez	a0,a0
    1050:	8082                	ret

00001052 <FLASH_Unlock>:
    1052:	456707b7          	lui	a5,0x45670
    1056:	40022737          	lui	a4,0x40022
    105a:	12378793          	addi	a5,a5,291 # 45670123 <__global_pointer$+0x2566f87b>
    105e:	c35c                	sw	a5,4(a4)
    1060:	cdef97b7          	lui	a5,0xcdef9
    1064:	9ab78793          	addi	a5,a5,-1621 # cdef89ab <__global_pointer$+0xadef8103>
    1068:	c35c                	sw	a5,4(a4)
    106a:	8082                	ret

0000106c <FLASH_Lock>:
    106c:	40022737          	lui	a4,0x40022
    1070:	4b1c                	lw	a5,16(a4)
    1072:	0807e793          	ori	a5,a5,128
    1076:	cb1c                	sw	a5,16(a4)
    1078:	8082                	ret

0000107a <FLASH_GetBank1Status>:
    107a:	40022737          	lui	a4,0x40022
    107e:	475c                	lw	a5,12(a4)
    1080:	4505                	li	a0,1
    1082:	8b85                	andi	a5,a5,1
    1084:	e791                	bnez	a5,1090 <FLASH_GetBank1Status+0x16>
    1086:	4748                	lw	a0,12(a4)
    1088:	8941                	andi	a0,a0,16
    108a:	00153513          	seqz	a0,a0
    108e:	050d                	addi	a0,a0,3
    1090:	8082                	ret

00001092 <FLASH_WaitForLastOperation>:
    1092:	80eff2ef          	jal	t0,a0 <__riscv_save_0>
    1096:	842a                	mv	s0,a0
    1098:	37cd                	jal	107a <FLASH_GetBank1Status>
    109a:	4785                	li	a5,1
    109c:	00f51863          	bne	a0,a5,10ac <FLASH_WaitForLastOperation+0x1a>
    10a0:	e019                	bnez	s0,10a6 <FLASH_WaitForLastOperation+0x14>
    10a2:	4515                	li	a0,5
    10a4:	a029                	j	10ae <FLASH_WaitForLastOperation+0x1c>
    10a6:	3fd1                	jal	107a <FLASH_GetBank1Status>
    10a8:	147d                	addi	s0,s0,-1
    10aa:	bfc5                	j	109a <FLASH_WaitForLastOperation+0x8>
    10ac:	d87d                	beqz	s0,10a2 <FLASH_WaitForLastOperation+0x10>
    10ae:	ffdfe06f          	j	aa <__riscv_restore_0>

000010b2 <FLASH_ErasePage>:
    10b2:	feffe2ef          	jal	t0,a0 <__riscv_save_0>
    10b6:	84aa                	mv	s1,a0
    10b8:	000b0537          	lui	a0,0xb0
    10bc:	3fd9                	jal	1092 <FLASH_WaitForLastOperation>
    10be:	4791                	li	a5,4
    10c0:	02f51363          	bne	a0,a5,10e6 <FLASH_ErasePage+0x34>
    10c4:	40022437          	lui	s0,0x40022
    10c8:	481c                	lw	a5,16(s0)
    10ca:	000b0537          	lui	a0,0xb0
    10ce:	0027e793          	ori	a5,a5,2
    10d2:	c81c                	sw	a5,16(s0)
    10d4:	c844                	sw	s1,20(s0)
    10d6:	481c                	lw	a5,16(s0)
    10d8:	0407e793          	ori	a5,a5,64
    10dc:	c81c                	sw	a5,16(s0)
    10de:	3f55                	jal	1092 <FLASH_WaitForLastOperation>
    10e0:	481c                	lw	a5,16(s0)
    10e2:	9bf5                	andi	a5,a5,-3
    10e4:	c81c                	sw	a5,16(s0)
    10e6:	fc5fe06f          	j	aa <__riscv_restore_0>

000010ea <FLASH_ProgramHalfWord>:
    10ea:	fb7fe2ef          	jal	t0,a0 <__riscv_save_0>
    10ee:	1171                	addi	sp,sp,-4
    10f0:	84aa                	mv	s1,a0
    10f2:	6509                	lui	a0,0x2
    10f4:	c02e                	sw	a1,0(sp)
    10f6:	3f71                	jal	1092 <FLASH_WaitForLastOperation>
    10f8:	4791                	li	a5,4
    10fa:	4582                	lw	a1,0(sp)
    10fc:	00f51e63          	bne	a0,a5,1118 <FLASH_ProgramHalfWord+0x2e>
    1100:	40022437          	lui	s0,0x40022
    1104:	481c                	lw	a5,16(s0)
    1106:	6509                	lui	a0,0x2
    1108:	0017e793          	ori	a5,a5,1
    110c:	c81c                	sw	a5,16(s0)
    110e:	a08e                	sh	a1,0(s1)
    1110:	3749                	jal	1092 <FLASH_WaitForLastOperation>
    1112:	481c                	lw	a5,16(s0)
    1114:	9bf9                	andi	a5,a5,-2
    1116:	c81c                	sw	a5,16(s0)
    1118:	0111                	addi	sp,sp,4
    111a:	f91fe06f          	j	aa <__riscv_restore_0>

0000111e <GPIO_Init>:
    111e:	4594                	lw	a3,8(a1)
    1120:	0106f793          	andi	a5,a3,16
    1124:	00f6f293          	andi	t0,a3,15
    1128:	c781                	beqz	a5,1130 <GPIO_Init+0x12>
    112a:	41dc                	lw	a5,4(a1)
    112c:	00f2e2b3          	or	t0,t0,a5
    1130:	0005d383          	lhu	t2,0(a1)
    1134:	0ff3f793          	andi	a5,t2,255
    1138:	c3a5                	beqz	a5,1198 <GPIO_Init+0x7a>
    113a:	00052303          	lw	t1,0(a0) # 2000 <_data_lma+0x97c>
    113e:	1161                	addi	sp,sp,-8
    1140:	c222                	sw	s0,4(sp)
    1142:	c026                	sw	s1,0(sp)
    1144:	4781                	li	a5,0
    1146:	02800413          	li	s0,40
    114a:	04800493          	li	s1,72
    114e:	4705                	li	a4,1
    1150:	00f71633          	sll	a2,a4,a5
    1154:	00c3f733          	and	a4,t2,a2
    1158:	02e61263          	bne	a2,a4,117c <GPIO_Init+0x5e>
    115c:	00279593          	slli	a1,a5,0x2
    1160:	473d                	li	a4,15
    1162:	00b71733          	sll	a4,a4,a1
    1166:	fff74713          	not	a4,a4
    116a:	00677333          	and	t1,a4,t1
    116e:	00b295b3          	sll	a1,t0,a1
    1172:	0065e333          	or	t1,a1,t1
    1176:	00869d63          	bne	a3,s0,1190 <GPIO_Init+0x72>
    117a:	c950                	sw	a2,20(a0)
    117c:	0785                	addi	a5,a5,1
    117e:	4721                	li	a4,8
    1180:	fce797e3          	bne	a5,a4,114e <GPIO_Init+0x30>
    1184:	4412                	lw	s0,4(sp)
    1186:	00652023          	sw	t1,0(a0)
    118a:	4482                	lw	s1,0(sp)
    118c:	0121                	addi	sp,sp,8
    118e:	8082                	ret
    1190:	fe9696e3          	bne	a3,s1,117c <GPIO_Init+0x5e>
    1194:	c910                	sw	a2,16(a0)
    1196:	b7dd                	j	117c <GPIO_Init+0x5e>
    1198:	8082                	ret

0000119a <GPIO_SetBits>:
    119a:	c90c                	sw	a1,16(a0)
    119c:	8082                	ret

0000119e <GPIO_ResetBits>:
    119e:	c94c                	sw	a1,20(a0)
    11a0:	8082                	ret

000011a2 <GPIO_WriteBit>:
    11a2:	c219                	beqz	a2,11a8 <GPIO_WriteBit+0x6>
    11a4:	c90c                	sw	a1,16(a0)
    11a6:	8082                	ret
    11a8:	c94c                	sw	a1,20(a0)
    11aa:	8082                	ret

000011ac <NVIC_PriorityGroupConfig>:
    11ac:	8aa1a623          	sw	a0,-1876(gp) # 20000154 <NVIC_Priority_Group>
    11b0:	8082                	ret

000011b2 <NVIC_Init>:
    11b2:	8ac1a683          	lw	a3,-1876(gp) # 20000154 <NVIC_Priority_Group>
    11b6:	4785                	li	a5,1
    11b8:	2118                	lbu	a4,0(a0)
    11ba:	02f69063          	bne	a3,a5,11da <NVIC_Init+0x28>
    11be:	311c                	lbu	a5,1(a0)
    11c0:	02d79c63          	bne	a5,a3,11f8 <NVIC_Init+0x46>
    11c4:	213c                	lbu	a5,2(a0)
    11c6:	079a                	slli	a5,a5,0x6
    11c8:	f807e793          	ori	a5,a5,-128
    11cc:	e000e6b7          	lui	a3,0xe000e
    11d0:	0ff7f793          	andi	a5,a5,255
    11d4:	96ba                	add	a3,a3,a4
    11d6:	40f68023          	sb	a5,1024(a3) # e000e400 <__global_pointer$+0xc000db58>
    11da:	4685                	li	a3,1
    11dc:	00575793          	srli	a5,a4,0x5
    11e0:	00e69733          	sll	a4,a3,a4
    11e4:	4154                	lw	a3,4(a0)
    11e6:	ce89                	beqz	a3,1200 <NVIC_Init+0x4e>
    11e8:	04078793          	addi	a5,a5,64
    11ec:	078a                	slli	a5,a5,0x2
    11ee:	e000e6b7          	lui	a3,0xe000e
    11f2:	97b6                	add	a5,a5,a3
    11f4:	c398                	sw	a4,0(a5)
    11f6:	8082                	ret
    11f8:	f3ed                	bnez	a5,11da <NVIC_Init+0x28>
    11fa:	213c                	lbu	a5,2(a0)
    11fc:	079a                	slli	a5,a5,0x6
    11fe:	b7f9                	j	11cc <NVIC_Init+0x1a>
    1200:	06078793          	addi	a5,a5,96
    1204:	e000e6b7          	lui	a3,0xe000e
    1208:	078a                	slli	a5,a5,0x2
    120a:	97b6                	add	a5,a5,a3
    120c:	c398                	sw	a4,0(a5)
    120e:	0000100f          	fence.i
    1212:	8082                	ret

00001214 <RCC_AdjustHSICalibrationValue>:
    1214:	40021737          	lui	a4,0x40021
    1218:	431c                	lw	a5,0(a4)
    121a:	050e                	slli	a0,a0,0x3
    121c:	f077f793          	andi	a5,a5,-249
    1220:	8d5d                	or	a0,a0,a5
    1222:	c308                	sw	a0,0(a4)
    1224:	8082                	ret

00001226 <RCC_GetClocksFreq>:
    1226:	e7bfe2ef          	jal	t0,a0 <__riscv_save_0>
    122a:	40021737          	lui	a4,0x40021
    122e:	435c                	lw	a5,4(a4)
    1230:	4691                	li	a3,4
    1232:	842a                	mv	s0,a0
    1234:	8bb1                	andi	a5,a5,12
    1236:	00d78563          	beq	a5,a3,1240 <RCC_GetClocksFreq+0x1a>
    123a:	46a1                	li	a3,8
    123c:	08d78063          	beq	a5,a3,12bc <RCC_GetClocksFreq+0x96>
    1240:	016e37b7          	lui	a5,0x16e3
    1244:	60078793          	addi	a5,a5,1536 # 16e3600 <_data_lma+0x16e1f7c>
    1248:	c01c                	sw	a5,0(s0)
    124a:	400216b7          	lui	a3,0x40021
    124e:	42dc                	lw	a5,4(a3)
    1250:	8391                	srli	a5,a5,0x4
    1252:	00f7f713          	andi	a4,a5,15
    1256:	200007b7          	lui	a5,0x20000
    125a:	03078793          	addi	a5,a5,48 # 20000030 <APBAHBPrescTable>
    125e:	97ba                	add	a5,a5,a4
    1260:	238c                	lbu	a1,0(a5)
    1262:	42dc                	lw	a5,4(a3)
    1264:	4018                	lw	a4,0(s0)
    1266:	0ff5f593          	andi	a1,a1,255
    126a:	0807f793          	andi	a5,a5,128
    126e:	00b75533          	srl	a0,a4,a1
    1272:	e781                	bnez	a5,127a <RCC_GetClocksFreq+0x54>
    1274:	853a                	mv	a0,a4
    1276:	e47fe0ef          	jal	ra,bc <__udivsi3>
    127a:	c048                	sw	a0,4(s0)
    127c:	c408                	sw	a0,8(s0)
    127e:	c448                	sw	a0,12(s0)
    1280:	400217b7          	lui	a5,0x40021
    1284:	43dc                	lw	a5,4(a5)
    1286:	468d                	li	a3,3
    1288:	83ad                	srli	a5,a5,0xb
    128a:	8bfd                	andi	a5,a5,31
    128c:	0037d713          	srli	a4,a5,0x3
    1290:	078a                	slli	a5,a5,0x2
    1292:	8bf1                	andi	a5,a5,28
    1294:	8fd9                	or	a5,a5,a4
    1296:	0137f613          	andi	a2,a5,19
    129a:	0037f713          	andi	a4,a5,3
    129e:	00c6f463          	bgeu	a3,a2,12a6 <RCC_GetClocksFreq+0x80>
    12a2:	ff478713          	addi	a4,a5,-12 # 40020ff4 <__global_pointer$+0x2002074c>
    12a6:	200007b7          	lui	a5,0x20000
    12aa:	01c78793          	addi	a5,a5,28 # 2000001c <ADCPrescTable>
    12ae:	97ba                	add	a5,a5,a4
    12b0:	238c                	lbu	a1,0(a5)
    12b2:	e0bfe0ef          	jal	ra,bc <__udivsi3>
    12b6:	c808                	sw	a0,16(s0)
    12b8:	df3fe06f          	j	aa <__riscv_restore_0>
    12bc:	435c                	lw	a5,4(a4)
    12be:	02dc77b7          	lui	a5,0x2dc7
    12c2:	c0078793          	addi	a5,a5,-1024 # 2dc6c00 <_data_lma+0x2dc557c>
    12c6:	b749                	j	1248 <RCC_GetClocksFreq+0x22>

000012c8 <RCC_APB2PeriphClockCmd>:
    12c8:	c599                	beqz	a1,12d6 <RCC_APB2PeriphClockCmd+0xe>
    12ca:	40021737          	lui	a4,0x40021
    12ce:	4f1c                	lw	a5,24(a4)
    12d0:	8d5d                	or	a0,a0,a5
    12d2:	cf08                	sw	a0,24(a4)
    12d4:	8082                	ret
    12d6:	400217b7          	lui	a5,0x40021
    12da:	4f98                	lw	a4,24(a5)
    12dc:	fff54513          	not	a0,a0
    12e0:	8d79                	and	a0,a0,a4
    12e2:	cf88                	sw	a0,24(a5)
    12e4:	8082                	ret

000012e6 <TIM_TimeBaseInit>:
    12e6:	211e                	lhu	a5,0(a0)
    12e8:	40013737          	lui	a4,0x40013
    12ec:	c0070713          	addi	a4,a4,-1024 # 40012c00 <__global_pointer$+0x20012358>
    12f0:	07c2                	slli	a5,a5,0x10
    12f2:	83c1                	srli	a5,a5,0x10
    12f4:	00e50663          	beq	a0,a4,1300 <TIM_TimeBaseInit+0x1a>
    12f8:	40000737          	lui	a4,0x40000
    12fc:	00e51663          	bne	a0,a4,1308 <TIM_TimeBaseInit+0x22>
    1300:	21ba                	lhu	a4,2(a1)
    1302:	f8f7f793          	andi	a5,a5,-113
    1306:	8fd9                	or	a5,a5,a4
    1308:	21fa                	lhu	a4,6(a1)
    130a:	cff7f793          	andi	a5,a5,-769
    130e:	07c2                	slli	a5,a5,0x10
    1310:	83c1                	srli	a5,a5,0x10
    1312:	8fd9                	or	a5,a5,a4
    1314:	a11e                	sh	a5,0(a0)
    1316:	21de                	lhu	a5,4(a1)
    1318:	b55e                	sh	a5,44(a0)
    131a:	219e                	lhu	a5,0(a1)
    131c:	b51e                	sh	a5,40(a0)
    131e:	400137b7          	lui	a5,0x40013
    1322:	c0078793          	addi	a5,a5,-1024 # 40012c00 <__global_pointer$+0x20012358>
    1326:	00f51463          	bne	a0,a5,132e <TIM_TimeBaseInit+0x48>
    132a:	259c                	lbu	a5,8(a1)
    132c:	b91e                	sh	a5,48(a0)
    132e:	4785                	li	a5,1
    1330:	a95e                	sh	a5,20(a0)
    1332:	8082                	ret

00001334 <TIM_Cmd>:
    1334:	211e                	lhu	a5,0(a0)
    1336:	c589                	beqz	a1,1340 <TIM_Cmd+0xc>
    1338:	0017e793          	ori	a5,a5,1
    133c:	a11e                	sh	a5,0(a0)
    133e:	8082                	ret
    1340:	07c2                	slli	a5,a5,0x10
    1342:	83c1                	srli	a5,a5,0x10
    1344:	9bf9                	andi	a5,a5,-2
    1346:	07c2                	slli	a5,a5,0x10
    1348:	83c1                	srli	a5,a5,0x10
    134a:	bfcd                	j	133c <TIM_Cmd+0x8>

0000134c <TIM_ITConfig>:
    134c:	255e                	lhu	a5,12(a0)
    134e:	c601                	beqz	a2,1356 <TIM_ITConfig+0xa>
    1350:	8ddd                	or	a1,a1,a5
    1352:	a54e                	sh	a1,12(a0)
    1354:	8082                	ret
    1356:	fff5c593          	not	a1,a1
    135a:	8dfd                	and	a1,a1,a5
    135c:	bfdd                	j	1352 <TIM_ITConfig+0x6>

0000135e <TIM_SetCounter>:
    135e:	b14e                	sh	a1,36(a0)
    1360:	8082                	ret

00001362 <TIM_GetITStatus>:
    1362:	291e                	lhu	a5,16(a0)
    1364:	254a                	lhu	a0,12(a0)
    1366:	8fed                	and	a5,a5,a1
    1368:	0542                	slli	a0,a0,0x10
    136a:	8141                	srli	a0,a0,0x10
    136c:	c789                	beqz	a5,1376 <TIM_GetITStatus+0x14>
    136e:	8d6d                	and	a0,a0,a1
    1370:	00a03533          	snez	a0,a0
    1374:	8082                	ret
    1376:	4501                	li	a0,0
    1378:	8082                	ret

0000137a <TIM_ClearITPendingBit>:
    137a:	fff5c593          	not	a1,a1
    137e:	05c2                	slli	a1,a1,0x10
    1380:	81c1                	srli	a1,a1,0x10
    1382:	a90e                	sh	a1,16(a0)
    1384:	8082                	ret

00001386 <USART_Init>:
    1386:	d1bfe2ef          	jal	t0,a0 <__riscv_save_0>
    138a:	2916                	lhu	a3,16(a0)
    138c:	77f5                	lui	a5,0xffffd
    138e:	17fd                	addi	a5,a5,-1
    1390:	8ff5                	and	a5,a5,a3
    1392:	21f6                	lhu	a3,6(a1)
    1394:	25da                	lhu	a4,12(a1)
    1396:	1121                	addi	sp,sp,-24
    1398:	8fd5                	or	a5,a5,a3
    139a:	a91e                	sh	a5,16(a0)
    139c:	2556                	lhu	a3,12(a0)
    139e:	77fd                	lui	a5,0xfffff
    13a0:	9f378793          	addi	a5,a5,-1549 # ffffe9f3 <__global_pointer$+0xdfffe14b>
    13a4:	8ff5                	and	a5,a5,a3
    13a6:	21d6                	lhu	a3,4(a1)
    13a8:	842a                	mv	s0,a0
    13aa:	c02e                	sw	a1,0(sp)
    13ac:	8fd5                	or	a5,a5,a3
    13ae:	2596                	lhu	a3,8(a1)
    13b0:	8fd5                	or	a5,a5,a3
    13b2:	25b6                	lhu	a3,10(a1)
    13b4:	8fd5                	or	a5,a5,a3
    13b6:	a55e                	sh	a5,12(a0)
    13b8:	295e                	lhu	a5,20(a0)
    13ba:	07c2                	slli	a5,a5,0x10
    13bc:	83c1                	srli	a5,a5,0x10
    13be:	cff7f793          	andi	a5,a5,-769
    13c2:	8f5d                	or	a4,a4,a5
    13c4:	a95a                	sh	a4,20(a0)
    13c6:	0048                	addi	a0,sp,4
    13c8:	3db9                	jal	1226 <RCC_GetClocksFreq>
    13ca:	400147b7          	lui	a5,0x40014
    13ce:	80078793          	addi	a5,a5,-2048 # 40013800 <__global_pointer$+0x20012f58>
    13d2:	4582                	lw	a1,0(sp)
    13d4:	06f41263          	bne	s0,a5,1438 <USART_Init+0xb2>
    13d8:	47c2                	lw	a5,16(sp)
    13da:	245a                	lhu	a4,12(s0)
    13dc:	00179513          	slli	a0,a5,0x1
    13e0:	953e                	add	a0,a0,a5
    13e2:	0742                	slli	a4,a4,0x10
    13e4:	050e                	slli	a0,a0,0x3
    13e6:	8741                	srai	a4,a4,0x10
    13e8:	953e                	add	a0,a0,a5
    13ea:	418c                	lw	a1,0(a1)
    13ec:	04075863          	bgez	a4,143c <USART_Init+0xb6>
    13f0:	0586                	slli	a1,a1,0x1
    13f2:	ccbfe0ef          	jal	ra,bc <__udivsi3>
    13f6:	06400593          	li	a1,100
    13fa:	c02a                	sw	a0,0(sp)
    13fc:	cc1fe0ef          	jal	ra,bc <__udivsi3>
    1400:	4782                	lw	a5,0(sp)
    1402:	00451493          	slli	s1,a0,0x4
    1406:	06400593          	li	a1,100
    140a:	853e                	mv	a0,a5
    140c:	cddfe0ef          	jal	ra,e8 <__umodsi3>
    1410:	245e                	lhu	a5,12(s0)
    1412:	07c2                	slli	a5,a5,0x10
    1414:	87c1                	srai	a5,a5,0x10
    1416:	0207d563          	bgez	a5,1440 <USART_Init+0xba>
    141a:	050e                	slli	a0,a0,0x3
    141c:	06400593          	li	a1,100
    1420:	03250513          	addi	a0,a0,50
    1424:	c99fe0ef          	jal	ra,bc <__udivsi3>
    1428:	891d                	andi	a0,a0,7
    142a:	8cc9                	or	s1,s1,a0
    142c:	04c2                	slli	s1,s1,0x10
    142e:	80c1                	srli	s1,s1,0x10
    1430:	a406                	sh	s1,8(s0)
    1432:	0161                	addi	sp,sp,24
    1434:	c77fe06f          	j	aa <__riscv_restore_0>
    1438:	47b2                	lw	a5,12(sp)
    143a:	b745                	j	13da <USART_Init+0x54>
    143c:	058a                	slli	a1,a1,0x2
    143e:	bf55                	j	13f2 <USART_Init+0x6c>
    1440:	0512                	slli	a0,a0,0x4
    1442:	06400593          	li	a1,100
    1446:	03250513          	addi	a0,a0,50
    144a:	c73fe0ef          	jal	ra,bc <__udivsi3>
    144e:	893d                	andi	a0,a0,15
    1450:	bfe9                	j	142a <USART_Init+0xa4>

00001452 <USART_Cmd>:
    1452:	c591                	beqz	a1,145e <USART_Cmd+0xc>
    1454:	255e                	lhu	a5,12(a0)
    1456:	6709                	lui	a4,0x2
    1458:	8fd9                	or	a5,a5,a4
    145a:	a55e                	sh	a5,12(a0)
    145c:	8082                	ret
    145e:	255a                	lhu	a4,12(a0)
    1460:	77f9                	lui	a5,0xffffe
    1462:	17fd                	addi	a5,a5,-1
    1464:	8ff9                	and	a5,a5,a4
    1466:	bfd5                	j	145a <USART_Cmd+0x8>

00001468 <USART_ITConfig>:
    1468:	0ff5f713          	andi	a4,a1,255
    146c:	4785                	li	a5,1
    146e:	8315                	srli	a4,a4,0x5
    1470:	00b795b3          	sll	a1,a5,a1
    1474:	00f71963          	bne	a4,a5,1486 <USART_ITConfig+0x1e>
    1478:	00c50793          	addi	a5,a0,12
    147c:	4398                	lw	a4,0(a5)
    147e:	ce01                	beqz	a2,1496 <USART_ITConfig+0x2e>
    1480:	8dd9                	or	a1,a1,a4
    1482:	c38c                	sw	a1,0(a5)
    1484:	8082                	ret
    1486:	4689                	li	a3,2
    1488:	01450793          	addi	a5,a0,20
    148c:	fed718e3          	bne	a4,a3,147c <USART_ITConfig+0x14>
    1490:	01050793          	addi	a5,a0,16
    1494:	b7e5                	j	147c <USART_ITConfig+0x14>
    1496:	fff5c593          	not	a1,a1
    149a:	8df9                	and	a1,a1,a4
    149c:	b7dd                	j	1482 <USART_ITConfig+0x1a>

0000149e <USART_SendData>:
    149e:	1ff5f593          	andi	a1,a1,511
    14a2:	a14e                	sh	a1,4(a0)
    14a4:	8082                	ret

000014a6 <USART_ReceiveData>:
    14a6:	214a                	lhu	a0,4(a0)
    14a8:	1ff57513          	andi	a0,a0,511
    14ac:	8082                	ret

000014ae <USART_GetFlagStatus>:
    14ae:	210a                	lhu	a0,0(a0)
    14b0:	8d6d                	and	a0,a0,a1
    14b2:	00a03533          	snez	a0,a0
    14b6:	8082                	ret

000014b8 <USART_GetITStatus>:
    14b8:	0ff5f713          	andi	a4,a1,255
    14bc:	4685                	li	a3,1
    14be:	8315                	srli	a4,a4,0x5
    14c0:	00b697b3          	sll	a5,a3,a1
    14c4:	02d71163          	bne	a4,a3,14e6 <USART_GetITStatus+0x2e>
    14c8:	255a                	lhu	a4,12(a0)
    14ca:	8ff9                	and	a5,a5,a4
    14cc:	211a                	lhu	a4,0(a0)
    14ce:	4501                	li	a0,0
    14d0:	0742                	slli	a4,a4,0x10
    14d2:	8341                	srli	a4,a4,0x10
    14d4:	cb81                	beqz	a5,14e4 <USART_GetITStatus+0x2c>
    14d6:	4505                	li	a0,1
    14d8:	81a1                	srli	a1,a1,0x8
    14da:	00b515b3          	sll	a1,a0,a1
    14de:	8f6d                	and	a4,a4,a1
    14e0:	00e03533          	snez	a0,a4
    14e4:	8082                	ret
    14e6:	4689                	li	a3,2
    14e8:	00d71463          	bne	a4,a3,14f0 <USART_GetITStatus+0x38>
    14ec:	291a                	lhu	a4,16(a0)
    14ee:	bff1                	j	14ca <USART_GetITStatus+0x12>
    14f0:	295a                	lhu	a4,20(a0)
    14f2:	bfe1                	j	14ca <USART_GetITStatus+0x12>

000014f4 <_sbrk>:
    14f4:	20000737          	lui	a4,0x20000
    14f8:	04070713          	addi	a4,a4,64 # 20000040 <curbrk.4091>
    14fc:	431c                	lw	a5,0(a4)
    14fe:	8b418693          	addi	a3,gp,-1868 # 2000015c <_ebss>
    1502:	953e                	add	a0,a0,a5
    1504:	00d56963          	bltu	a0,a3,1516 <_sbrk+0x22>
    1508:	e5818693          	addi	a3,gp,-424 # 20000700 <_heap_end>
    150c:	00a6e563          	bltu	a3,a0,1516 <_sbrk+0x22>
    1510:	c308                	sw	a0,0(a4)
    1512:	853e                	mv	a0,a5
    1514:	8082                	ret
    1516:	57fd                	li	a5,-1
    1518:	bfed                	j	1512 <_sbrk+0x1e>

0000151a <srand>:
    151a:	1151                	addi	sp,sp,-12
    151c:	1ffff797          	auipc	a5,0x1ffff
    1520:	b8c78793          	addi	a5,a5,-1140 # 200000a8 <_impure_ptr>
    1524:	c222                	sw	s0,4(sp)
    1526:	4380                	lw	s0,0(a5)
    1528:	c026                	sw	s1,0(sp)
    152a:	c406                	sw	ra,8(sp)
    152c:	5c1c                	lw	a5,56(s0)
    152e:	84aa                	mv	s1,a0
    1530:	eb8d                	bnez	a5,1562 <srand+0x48>
    1532:	4561                	li	a0,24
    1534:	2081                	jal	1574 <malloc>
    1536:	abcd37b7          	lui	a5,0xabcd3
    153a:	dc08                	sw	a0,56(s0)
    153c:	30e78793          	addi	a5,a5,782 # abcd330e <__global_pointer$+0x8bcd2a66>
    1540:	c11c                	sw	a5,0(a0)
    1542:	e66d17b7          	lui	a5,0xe66d1
    1546:	23478793          	addi	a5,a5,564 # e66d1234 <__global_pointer$+0xc66d098c>
    154a:	c15c                	sw	a5,4(a0)
    154c:	0005e7b7          	lui	a5,0x5e
    1550:	eec78793          	addi	a5,a5,-276 # 5deec <_data_lma+0x5c868>
    1554:	c51c                	sw	a5,8(a0)
    1556:	47ad                	li	a5,11
    1558:	a55e                	sh	a5,12(a0)
    155a:	4705                	li	a4,1
    155c:	4781                	li	a5,0
    155e:	c918                	sw	a4,16(a0)
    1560:	c95c                	sw	a5,20(a0)
    1562:	5c1c                	lw	a5,56(s0)
    1564:	40a2                	lw	ra,8(sp)
    1566:	4412                	lw	s0,4(sp)
    1568:	cb84                	sw	s1,16(a5)
    156a:	0007aa23          	sw	zero,20(a5)
    156e:	4482                	lw	s1,0(sp)
    1570:	0131                	addi	sp,sp,12
    1572:	8082                	ret

00001574 <malloc>:
    1574:	1ffff797          	auipc	a5,0x1ffff
    1578:	b3478793          	addi	a5,a5,-1228 # 200000a8 <_impure_ptr>
    157c:	85aa                	mv	a1,a0
    157e:	4388                	lw	a0,0(a5)
    1580:	a009                	j	1582 <_malloc_r>

00001582 <_malloc_r>:
    1582:	1141                	addi	sp,sp,-16
    1584:	c226                	sw	s1,4(sp)
    1586:	00358493          	addi	s1,a1,3
    158a:	98f1                	andi	s1,s1,-4
    158c:	c606                	sw	ra,12(sp)
    158e:	c422                	sw	s0,8(sp)
    1590:	04a1                	addi	s1,s1,8
    1592:	47b1                	li	a5,12
    1594:	04f4f563          	bgeu	s1,a5,15de <_malloc_r+0x5c>
    1598:	44b1                	li	s1,12
    159a:	04b4e463          	bltu	s1,a1,15e2 <_malloc_r+0x60>
    159e:	c02a                	sw	a0,0(sp)
    15a0:	28f9                	jal	167e <__malloc_lock>
    15a2:	80818713          	addi	a4,gp,-2040 # 200000b0 <_edata>
    15a6:	4314                	lw	a3,0(a4)
    15a8:	4782                	lw	a5,0(sp)
    15aa:	8436                	mv	s0,a3
    15ac:	e039                	bnez	s0,15f2 <_malloc_r+0x70>
    15ae:	80c18713          	addi	a4,gp,-2036 # 200000b4 <__malloc_sbrk_start>
    15b2:	4318                	lw	a4,0(a4)
    15b4:	eb01                	bnez	a4,15c4 <_malloc_r+0x42>
    15b6:	853e                	mv	a0,a5
    15b8:	4581                	li	a1,0
    15ba:	c03e                	sw	a5,0(sp)
    15bc:	2869                	jal	1656 <_sbrk_r>
    15be:	80a1a623          	sw	a0,-2036(gp) # 200000b4 <__malloc_sbrk_start>
    15c2:	4782                	lw	a5,0(sp)
    15c4:	853e                	mv	a0,a5
    15c6:	85a6                	mv	a1,s1
    15c8:	c03e                	sw	a5,0(sp)
    15ca:	2071                	jal	1656 <_sbrk_r>
    15cc:	577d                	li	a4,-1
    15ce:	4782                	lw	a5,0(sp)
    15d0:	06e51463          	bne	a0,a4,1638 <_malloc_r+0xb6>
    15d4:	4731                	li	a4,12
    15d6:	c398                	sw	a4,0(a5)
    15d8:	853e                	mv	a0,a5
    15da:	205d                	jal	1680 <__malloc_unlock>
    15dc:	a029                	j	15e6 <_malloc_r+0x64>
    15de:	fa04dee3          	bgez	s1,159a <_malloc_r+0x18>
    15e2:	47b1                	li	a5,12
    15e4:	c11c                	sw	a5,0(a0)
    15e6:	4501                	li	a0,0
    15e8:	40b2                	lw	ra,12(sp)
    15ea:	4422                	lw	s0,8(sp)
    15ec:	4492                	lw	s1,4(sp)
    15ee:	0141                	addi	sp,sp,16
    15f0:	8082                	ret
    15f2:	4018                	lw	a4,0(s0)
    15f4:	8f05                	sub	a4,a4,s1
    15f6:	02074e63          	bltz	a4,1632 <_malloc_r+0xb0>
    15fa:	462d                	li	a2,11
    15fc:	00e67663          	bgeu	a2,a4,1608 <_malloc_r+0x86>
    1600:	c018                	sw	a4,0(s0)
    1602:	943a                	add	s0,s0,a4
    1604:	c004                	sw	s1,0(s0)
    1606:	a031                	j	1612 <_malloc_r+0x90>
    1608:	4058                	lw	a4,4(s0)
    160a:	02869263          	bne	a3,s0,162e <_malloc_r+0xac>
    160e:	80e1a423          	sw	a4,-2040(gp) # 200000b0 <_edata>
    1612:	853e                	mv	a0,a5
    1614:	20b5                	jal	1680 <__malloc_unlock>
    1616:	00b40513          	addi	a0,s0,11 # 4002200b <__global_pointer$+0x20021763>
    161a:	00440713          	addi	a4,s0,4
    161e:	9961                	andi	a0,a0,-8
    1620:	40e507b3          	sub	a5,a0,a4
    1624:	d3f1                	beqz	a5,15e8 <_malloc_r+0x66>
    1626:	943e                	add	s0,s0,a5
    1628:	8f09                	sub	a4,a4,a0
    162a:	c018                	sw	a4,0(s0)
    162c:	bf75                	j	15e8 <_malloc_r+0x66>
    162e:	c2d8                	sw	a4,4(a3)
    1630:	b7cd                	j	1612 <_malloc_r+0x90>
    1632:	86a2                	mv	a3,s0
    1634:	4040                	lw	s0,4(s0)
    1636:	bf9d                	j	15ac <_malloc_r+0x2a>
    1638:	00350413          	addi	s0,a0,3
    163c:	9871                	andi	s0,s0,-4
    163e:	fc8503e3          	beq	a0,s0,1604 <_malloc_r+0x82>
    1642:	40a405b3          	sub	a1,s0,a0
    1646:	853e                	mv	a0,a5
    1648:	c03e                	sw	a5,0(sp)
    164a:	2031                	jal	1656 <_sbrk_r>
    164c:	577d                	li	a4,-1
    164e:	4782                	lw	a5,0(sp)
    1650:	fae51ae3          	bne	a0,a4,1604 <_malloc_r+0x82>
    1654:	b741                	j	15d4 <_malloc_r+0x52>

00001656 <_sbrk_r>:
    1656:	1151                	addi	sp,sp,-12
    1658:	c222                	sw	s0,4(sp)
    165a:	842a                	mv	s0,a0
    165c:	852e                	mv	a0,a1
    165e:	8a01a823          	sw	zero,-1872(gp) # 20000158 <errno>
    1662:	c406                	sw	ra,8(sp)
    1664:	3d41                	jal	14f4 <_sbrk>
    1666:	57fd                	li	a5,-1
    1668:	00f51763          	bne	a0,a5,1676 <_sbrk_r+0x20>
    166c:	8b018793          	addi	a5,gp,-1872 # 20000158 <errno>
    1670:	439c                	lw	a5,0(a5)
    1672:	c391                	beqz	a5,1676 <_sbrk_r+0x20>
    1674:	c01c                	sw	a5,0(s0)
    1676:	40a2                	lw	ra,8(sp)
    1678:	4412                	lw	s0,4(sp)
    167a:	0131                	addi	sp,sp,12
    167c:	8082                	ret

0000167e <__malloc_lock>:
    167e:	8082                	ret

00001680 <__malloc_unlock>:
    1680:	8082                	ret
	...
